 secp256k1

 Timestamp is 5b7565b8 (Thu Aug 16 18:53:28 2018)

 Preferred load address is 0000000180000000

 Start         Length     Name                   Class
 0001:00000000 000000c3H .text$di                CODE
 0001:000000d0 00025ff3H .text$mn                CODE
 0001:000260d0 000002bfH .text$x                 CODE
 0001:00026390 00000000H .text$yd                CODE
 0002:00000000 00000228H .idata$5                DATA
 0002:00000228 00000008H .CRT$XCA                DATA
 0002:00000230 00000070H .CRT$XCU                DATA
 0002:000002a0 00000008H .CRT$XCZ                DATA
 0002:000002a8 00000008H .CRT$XIA                DATA
 0002:000002b0 00000020H .CRT$XIC                DATA
 0002:000002d0 00000008H .CRT$XIZ                DATA
 0002:000002d8 00000008H .CRT$XPA                DATA
 0002:000002e0 00000010H .CRT$XPX                DATA
 0002:000002f0 00000008H .CRT$XPXA               DATA
 0002:000002f8 00000008H .CRT$XPZ                DATA
 0002:00000300 00000008H .CRT$XTA                DATA
 0002:00000308 00000008H .CRT$XTZ                DATA
 0002:00000310 00007fc0H .rdata                  DATA
 0002:000082d0 00000070H .rdata$debug            DATA
 0002:00008340 0000016cH .rdata$r                DATA
 0002:000084b0 00000008H .rtc$IAA                DATA
 0002:000084b8 00000008H .rtc$IZZ                DATA
 0002:000084c0 00000008H .rtc$TAA                DATA
 0002:000084c8 00000008H .rtc$TZZ                DATA
 0002:000084d0 000018acH .xdata                  DATA
 0002:00009d80 00000084H .xdata$x                DATA
 0002:00009e04 00000020H .didat$2                DATA
 0002:00009e24 00000020H .didat$3                DATA
 0002:00009e48 000001a0H .didat$4                DATA
 0002:00009fe8 00000c6eH .didat$6                DATA
 0002:0000ac58 000001a0H .didat$7                DATA
 0002:0000ae00 00000056H .edata                  DATA
 0002:0000ae58 00000014H .idata$2                DATA
 0002:0000ae6c 00000014H .idata$3                DATA
 0002:0000ae80 00000228H .idata$4                DATA
 0002:0000b0a8 00000500H .idata$6                DATA
 0003:00000000 00001878H .data                   DATA
 0003:00001878 00000070H .data$r                 DATA
 0003:000018e8 000001a0H .didat$5                DATA
 0003:00001aa0 000024e0H .bss                    DATA
 0004:00000000 00001458H .pdata                  DATA
 0005:00000000 00000058H .rsrc$01                DATA
 0005:00000060 00000180H .rsrc$02                DATA

  Address         Publics by Value              Rva+Base               Lib:Object

 0000:00000000       ___safe_se_handler_count   0000000000000000     <absolute>
 0000:00000000       ___safe_se_handler_table   0000000000000000     <absolute>
 0000:00000000       __guard_fids_table         0000000000000000     <absolute>
 0000:00000000       __guard_fids_count         0000000000000000     <absolute>
 0000:00000000       __guard_flags              0000000000000000     <absolute>
 0000:00000000       __ImageBase                0000000180000000     <linker-defined>
 0001:000001a0       ?New@?$Factory@VFunctionTemplate@v8@@@imp@Nan@@SA?AV?$Local@VFunctionTemplate@v8@@@v8@@P6AXAEBV?$FunctionCallbackInfo@VValue@v8@@@3@@ZV?$Local@VValue@v8@@@5@V?$Local@VSignature@v8@@@5@@Z 00000001800011a0 f i addon.obj
 0001:000003a0       ?Export@Nan@@YAXV?$Local@VObject@v8@@@v8@@PEBDP6AXAEBV?$FunctionCallbackInfo@VValue@v8@@@1@@Z@Z 00000001800013a0 f i addon.obj
 0001:00000510       ?Init@@YAXV?$Local@VObject@v8@@@v8@@@Z 0000000180001510 f   addon.obj
 0001:00000750       ?ThrowError@Nan@@YAXPEBD@Z 0000000180001750 f i privatekey.obj
 0001:000007e0       ?ThrowRangeError@Nan@@YAXPEBD@Z 00000001800017e0 f i privatekey.obj
 0001:00000870       ?ThrowTypeError@Nan@@YAXPEBD@Z 0000000180001870 f i privatekey.obj
 0001:00003510       ?privateKeyVerify@@YAXAEBV?$FunctionCallbackInfo@VValue@v8@@@Nan@@@Z 0000000180004510 f   privatekey.obj
 0001:00003620       ?privateKeyExport@@YAXAEBV?$FunctionCallbackInfo@VValue@v8@@@Nan@@@Z 0000000180004620 f   privatekey.obj
 0001:00003870       ?privateKeyImport@@YAXAEBV?$FunctionCallbackInfo@VValue@v8@@@Nan@@@Z 0000000180004870 f   privatekey.obj
 0001:000039c0       ?privateKeyNegate@@YAXAEBV?$FunctionCallbackInfo@VValue@v8@@@Nan@@@Z 00000001800049c0 f   privatekey.obj
 0001:00003ae0       ?privateKeyModInverse@@YAXAEBV?$FunctionCallbackInfo@VValue@v8@@@Nan@@@Z 0000000180004ae0 f   privatekey.obj
 0001:00003d50       ?privateKeyTweakAdd@@YAXAEBV?$FunctionCallbackInfo@VValue@v8@@@Nan@@@Z 0000000180004d50 f   privatekey.obj
 0001:00003ef0       ?privateKeyTweakMul@@YAXAEBV?$FunctionCallbackInfo@VValue@v8@@@Nan@@@Z 0000000180004ef0 f   privatekey.obj
 0001:00004090       ?publicKeyCreate@@YAXAEBV?$FunctionCallbackInfo@VValue@v8@@@Nan@@@Z 0000000180005090 f   publickey.obj
 0001:00004310       ?publicKeyConvert@@YAXAEBV?$FunctionCallbackInfo@VValue@v8@@@Nan@@@Z 0000000180005310 f   publickey.obj
 0001:000045c0       ?publicKeyVerify@@YAXAEBV?$FunctionCallbackInfo@VValue@v8@@@Nan@@@Z 00000001800055c0 f   publickey.obj
 0001:000046c0       ?publicKeyTweakAdd@@YAXAEBV?$FunctionCallbackInfo@VValue@v8@@@Nan@@@Z 00000001800056c0 f   publickey.obj
 0001:00004a10       ?publicKeyTweakMul@@YAXAEBV?$FunctionCallbackInfo@VValue@v8@@@Nan@@@Z 0000000180005a10 f   publickey.obj
 0001:00004d60       ?publicKeyCombine@@YAXAEBV?$FunctionCallbackInfo@VValue@v8@@@Nan@@@Z 0000000180005d60 f   publickey.obj
 0001:00005170       ?signatureNormalize@@YAXAEBV?$FunctionCallbackInfo@VValue@v8@@@Nan@@@Z 0000000180006170 f   signature.obj
 0001:00005320       ?signatureExport@@YAXAEBV?$FunctionCallbackInfo@VValue@v8@@@Nan@@@Z 0000000180006320 f   signature.obj
 0001:000054e0       ?signatureImport@@YAXAEBV?$FunctionCallbackInfo@VValue@v8@@@Nan@@@Z 00000001800064e0 f   signature.obj
 0001:00005650       ?signatureImportLax@@YAXAEBV?$FunctionCallbackInfo@VValue@v8@@@Nan@@@Z 0000000180006650 f   signature.obj
 0001:000057c0       ?nonce_function_custom@@YAHPEAEPEBE11PEAXI@Z 00000001800067c0 f   ecdsa.obj
 0001:00005a20       ?sign@@YAXAEBV?$FunctionCallbackInfo@VValue@v8@@@Nan@@@Z 0000000180006a20 f   ecdsa.obj
 0001:00005ef0       ?verify@@YAXAEBV?$FunctionCallbackInfo@VValue@v8@@@Nan@@@Z 0000000180006ef0 f   ecdsa.obj
 0001:00006150       ?recover@@YAXAEBV?$FunctionCallbackInfo@VValue@v8@@@Nan@@@Z 0000000180007150 f   ecdsa.obj
 0001:0000d8a0       ?ecdh@@YAXAEBV?$FunctionCallbackInfo@VValue@v8@@@Nan@@@Z 000000018000e8a0 f   ecdh.obj
 0001:0000dc10       ?ecdhUnsafe@@YAXAEBV?$FunctionCallbackInfo@VValue@v8@@@Nan@@@Z 000000018000ec10 f   ecdh.obj
 0001:00014bf0       secp256k1_context_create   0000000180015bf0 f   secp256k1.obj
 0001:00014d20       secp256k1_ec_pubkey_parse  0000000180015d20 f   secp256k1.obj
 0001:00014e10       secp256k1_ec_pubkey_serialize 0000000180015e10 f   secp256k1.obj
 0001:00014fc0       secp256k1_ecdsa_signature_parse_der 0000000180015fc0 f   secp256k1.obj
 0001:000150f0       secp256k1_ecdsa_signature_parse_compact 00000001800160f0 f   secp256k1.obj
 0001:00015210       secp256k1_ecdsa_signature_serialize_compact 0000000180016210 f   secp256k1.obj
 0001:000152b0       secp256k1_ecdsa_verify     00000001800162b0 f   secp256k1.obj
 0001:00015500       secp256k1_ec_seckey_verify 0000000180016500 f   secp256k1.obj
 0001:00015570       secp256k1_ec_pubkey_create 0000000180016570 f   secp256k1.obj
 0001:00015700       secp256k1_ec_privkey_negate 0000000180016700 f   secp256k1.obj
 0001:00015890       secp256k1_ec_privkey_tweak_add 0000000180016890 f   secp256k1.obj
 0001:00015bc0       secp256k1_ec_pubkey_tweak_add 0000000180016bc0 f   secp256k1.obj
 0001:00015e50       secp256k1_ec_privkey_tweak_mul 0000000180016e50 f   secp256k1.obj
 0001:00015f80       secp256k1_ec_pubkey_tweak_mul 0000000180016f80 f   secp256k1.obj
 0001:00016220       secp256k1_ec_pubkey_combine 0000000180017220 f   secp256k1.obj
 0001:000164e0       secp256k1_ecdsa_recoverable_signature_parse_compact 00000001800174e0 f   secp256k1.obj
 0001:00016a50       secp256k1_ecdsa_sign_recoverable 0000000180017a50 f   secp256k1.obj
 0001:000171e0       secp256k1_ecdsa_recover    00000001800181e0 f   secp256k1.obj
 0001:00017400       ecdsa_signature_parse_der_lax 0000000180018400 f   lax_der_parsing.obj
 0001:000176a0       ec_privkey_import_der      00000001800186a0 f   lax_der_privatekey_parsing.obj
 0001:000177e0       ec_privkey_export_der      00000001800187e0 f   lax_der_privatekey_parsing.obj
 0001:00017a6c       __imp_load_node_module_register 0000000180018a6c f   node:node.exe
 0001:00017a78       __tailMerge_node_exe       0000000180018a78 f i node:node.exe
 0001:00017af1       __imp_load_?ToLocalEmpty@V8@v8@@CAXXZ 0000000180018af1 f   node:node.exe
 0001:00017afd       __imp_load_?Escape@EscapableHandleScope@v8@@AEAAPEAPEAVObject@internal@2@PEAPEAV342@@Z 0000000180018afd f   node:node.exe
 0001:00017b09       __imp_load_??0EscapableHandleScope@v8@@QEAA@PEAVIsolate@1@@Z 0000000180018b09 f   node:node.exe
 0001:00017b15       __imp_load_?GetFunction@FunctionTemplate@v8@@QEAA?AV?$MaybeLocal@VFunction@v8@@@2@V?$Local@VContext@v8@@@2@@Z 0000000180018b15 f   node:node.exe
 0001:00017b21       __imp_load_?New@FunctionTemplate@v8@@SA?AV?$Local@VFunctionTemplate@v8@@@2@PEAVIsolate@2@P6AXAEBV?$FunctionCallbackInfo@VValue@v8@@@2@@ZV?$Local@VValue@v8@@@2@V?$Local@VSignature@v8@@@2@HW4ConstructorBehavior@2@@Z 0000000180018b21 f   node:node.exe
 0001:00017b2d       __imp_load_?NewFromUtf8@String@v8@@SA?AV?$MaybeLocal@VString@v8@@@2@PEAVIsolate@2@PEBDW4NewStringType@2@H@Z 0000000180018b2d f   node:node.exe
 0001:00017b39       __imp_load_?CreateHandle@HandleScope@v8@@KAPEAPEAVObject@internal@2@PEAVIsolate@42@PEAV342@@Z 0000000180018b39 f   node:node.exe
 0001:00017b45       __imp_load_?CreateHandle@HandleScope@v8@@CAPEAPEAVObject@internal@2@PEAVHeapObject@42@PEAV342@@Z 0000000180018b45 f   node:node.exe
 0001:00017b51       __imp_load_??1HandleScope@v8@@QEAA@XZ 0000000180018b51 f   node:node.exe
 0001:00017b5d       __imp_load_??0HandleScope@v8@@QEAA@PEAVIsolate@1@@Z 0000000180018b5d f   node:node.exe
 0001:00017b69       __imp_load_?SlowGetInternalField@Object@v8@@AEAA?AV?$Local@VValue@v8@@@2@H@Z 0000000180018b69 f   node:node.exe
 0001:00017b75       __imp_load_?SetInternalField@Object@v8@@QEAAXHV?$Local@VValue@v8@@@2@@Z 0000000180018b75 f   node:node.exe
 0001:00017b81       __imp_load_?Set@Object@v8@@QEAA?AV?$Maybe@_N@2@V?$Local@VContext@v8@@@2@V?$Local@VValue@v8@@@2@1@Z 0000000180018b81 f   node:node.exe
 0001:00017b8d       __imp_load_?SetInternalFieldCount@ObjectTemplate@v8@@QEAAXH@Z 0000000180018b8d f   node:node.exe
 0001:00017b99       __imp_load_?NewInstance@ObjectTemplate@v8@@QEAA?AV?$MaybeLocal@VObject@v8@@@2@V?$Local@VContext@v8@@@2@@Z 0000000180018b99 f   node:node.exe
 0001:00017ba5       __imp_load_?New@ObjectTemplate@v8@@SA?AV?$Local@VObjectTemplate@v8@@@2@PEAVIsolate@2@V?$Local@VFunctionTemplate@v8@@@2@@Z 0000000180018ba5 f   node:node.exe
 0001:00017bb1       __imp_load_?GetCurrentContext@Isolate@v8@@QEAA?AV?$Local@VContext@v8@@@2@XZ 0000000180018bb1 f   node:node.exe
 0001:00017bbd       __imp_load_?GetCurrent@Isolate@v8@@SAPEAV12@XZ 0000000180018bbd f   node:node.exe
 0001:00017bc9       __imp_load_?Value@External@v8@@QEBAPEAXXZ 0000000180018bc9 f   node:node.exe
 0001:00017bd5       __imp_load_?New@External@v8@@SA?AV?$Local@VExternal@v8@@@2@PEAVIsolate@2@PEAX@Z 0000000180018bd5 f   node:node.exe
 0001:00017be1       __imp_load_?Length@Buffer@node@@YA_KV?$Local@VObject@v8@@@v8@@@Z 0000000180018be1 f   node:node.exe
 0001:00017bed       __imp_load_?Data@Buffer@node@@YAPEADV?$Local@VObject@v8@@@v8@@@Z 0000000180018bed f   node:node.exe
 0001:00017bf9       __imp_load_?HasInstance@Buffer@node@@YA_NV?$Local@VObject@v8@@@v8@@@Z 0000000180018bf9 f   node:node.exe
 0001:00017c05       __imp_load_?Copy@Buffer@node@@YA?AV?$MaybeLocal@VObject@v8@@@v8@@PEAVIsolate@4@PEBD_K@Z 0000000180018c05 f   node:node.exe
 0001:00017c11       __imp_load_?BooleanValue@Value@v8@@QEBA_NXZ 0000000180018c11 f   node:node.exe
 0001:00017c1d       __imp_load_?IsBooleanObject@Value@v8@@QEBA_NXZ 0000000180018c1d f   node:node.exe
 0001:00017c29       __imp_load_?IsBoolean@Value@v8@@QEBA_NXZ 0000000180018c29 f   node:node.exe
 0001:00017c35       __imp_load_?Error@Exception@v8@@SA?AV?$Local@VValue@v8@@@2@V?$Local@VString@v8@@@2@@Z 0000000180018c35 f   node:node.exe
 0001:00017c41       __imp_load_?TypeError@Exception@v8@@SA?AV?$Local@VValue@v8@@@2@V?$Local@VString@v8@@@2@@Z 0000000180018c41 f   node:node.exe
 0001:00017c4d       __imp_load_?RangeError@Exception@v8@@SA?AV?$Local@VValue@v8@@@2@V?$Local@VString@v8@@@2@@Z 0000000180018c4d f   node:node.exe
 0001:00017c59       __imp_load_?ThrowException@Isolate@v8@@QEAA?AV?$Local@VValue@v8@@@2@V32@@Z 0000000180018c59 f   node:node.exe
 0001:00017c65       __imp_load_?IsArray@Value@v8@@QEBA_NXZ 0000000180018c65 f   node:node.exe
 0001:00017c71       __imp_load_?Length@Array@v8@@QEBAIXZ 0000000180018c71 f   node:node.exe
 0001:00017c7d       __imp_load_?Get@Object@v8@@QEAA?AV?$Local@VValue@v8@@@2@I@Z 0000000180018c7d f   node:node.exe
 0001:00017c89       __imp_load_?Length@Buffer@node@@YA_KV?$Local@VValue@v8@@@v8@@@Z 0000000180018c89 f   node:node.exe
 0001:00017c95       __imp_load_?Data@Buffer@node@@YAPEADV?$Local@VValue@v8@@@v8@@@Z 0000000180018c95 f   node:node.exe
 0001:00017ca1       __imp_load_?HasInstance@Buffer@node@@YA_NV?$Local@VValue@v8@@@v8@@@Z 0000000180018ca1 f   node:node.exe
 0001:00017cad       __imp_load_?Global@Context@v8@@QEAA?AV?$Local@VObject@v8@@@2@XZ 0000000180018cad f   node:node.exe
 0001:00017cb9       __imp_load_?IntegerValue@Value@v8@@QEBA_JXZ 0000000180018cb9 f   node:node.exe
 0001:00017cc5       __imp_load_?ToUint32@Value@v8@@QEBA?AV?$MaybeLocal@VUint32@v8@@@2@V?$Local@VContext@v8@@@2@@Z 0000000180018cc5 f   node:node.exe
 0001:00017cd1       __imp_load_?IsNumberObject@Value@v8@@QEBA_NXZ 0000000180018cd1 f   node:node.exe
 0001:00017cdd       __imp_load_?IsNumber@Value@v8@@QEBA_NXZ 0000000180018cdd f   node:node.exe
 0001:00017ce9       __imp_load_?IsObject@Value@v8@@QEBA_NXZ 0000000180018ce9 f   node:node.exe
 0001:00017cf5       __imp_load_?IsFunction@Value@v8@@QEBA_NXZ 0000000180018cf5 f   node:node.exe
 0001:00017d01       __imp_load_?New@Number@v8@@SA?AV?$Local@VNumber@v8@@@2@PEAVIsolate@2@N@Z 0000000180018d01 f   node:node.exe
 0001:00017d0d       __imp_load_?New@Object@v8@@SA?AV?$Local@VObject@v8@@@2@PEAVIsolate@2@@Z 0000000180018d0d f   node:node.exe
 0001:00017d19       __imp_load_?Get@Object@v8@@QEAA?AV?$Local@VValue@v8@@@2@V32@@Z 0000000180018d19 f   node:node.exe
 0001:00017d25       __imp_load_?Set@Object@v8@@QEAA_NV?$Local@VValue@v8@@@2@0@Z 0000000180018d25 f   node:node.exe
 0001:00017d31       __imp_load_?NewFromUnsigned@Integer@v8@@SA?AV?$Local@VInteger@v8@@@2@PEAVIsolate@2@I@Z 0000000180018d31 f   node:node.exe
 0001:00017d3d       __imp_load_?Call@Function@v8@@QEAA?AV?$Local@VValue@v8@@@2@V32@HQEAV32@@Z 0000000180018d3d f   node:node.exe
 0001:00017d4c       ??0bad_alloc@std@@QEAA@AEBV01@@Z 0000000180018d4c f i libcpmt:xthrow.obj
 0001:00017d70       ??1bad_alloc@std@@UEAA@XZ  0000000180018d70 f i libcpmt:xthrow.obj
 0001:00017d80       ??_Gbad_alloc@std@@UEAAPEAXI@Z 0000000180018d80 f i libcpmt:xthrow.obj
 0001:00017d80       ??_Ebad_alloc@std@@UEAAPEAXI@Z 0000000180018d80 f i libcpmt:xthrow.obj
 0001:00017dbc       ??_U@YAPEAX_K@Z            0000000180018dbc f   libcpmt:newaop.obj
 0001:00017de0       __security_check_cookie    0000000180018de0 f   LIBCMT:amdsecgs.obj
 0001:00017e10       memmove                    0000000180018e10 f   LIBCMT:memcpy.obj
 0001:00017e10       memcpy                     0000000180018e10 f   LIBCMT:memcpy.obj
 0001:00018378       __onexitinit               0000000180019378 f   LIBCMT:onexit.obj
 0001:000183bc       _onexit                    00000001800193bc f   LIBCMT:onexit.obj
 0001:000184c8       atexit                     00000001800194c8 f   LIBCMT:onexit.obj
 0001:000184e0       ??3@YAXPEAX@Z              00000001800194e0 f   LIBCMT:delete.obj
 0001:000184e8       ??2@YAPEAX_K@Z             00000001800194e8 f   LIBCMT:new.obj
 0001:00018554       _wassert                   0000000180019554 f   LIBCMT:wassert.obj
 0001:00018eb8       ??_V@YAXPEAX@Z             0000000180019eb8 f   LIBCMT:delete2.obj
 0001:00018ec0       abort                      0000000180019ec0 f   LIBCMT:abort.obj
 0001:00018f18       free                       0000000180019f18 f   LIBCMT:free.obj
 0001:00018f58       malloc                     0000000180019f58 f   LIBCMT:malloc.obj
 0001:00019010       __initstdio                000000018001a010 f   LIBCMT:_file.obj
 0001:000190a8       __endstdio                 000000018001a0a8 f   LIBCMT:_file.obj
 0001:000190d8       __iob_func                 000000018001a0d8 f   LIBCMT:_file.obj
 0001:000190e0       _lock_file                 000000018001a0e0 f   LIBCMT:_file.obj
 0001:00019148       _lock_file2                000000018001a148 f   LIBCMT:_file.obj
 0001:0001917c       _unlock_file               000000018001a17c f   LIBCMT:_file.obj
 0001:000191cc       _unlock_file2              000000018001a1cc f   LIBCMT:_file.obj
 0001:000191ec       fprintf                    000000018001a1ec f   LIBCMT:fprintf.obj
 0001:00019314       ??0_LocaleUpdate@@QEAA@PEAUlocaleinfo_struct@@@Z 000000018001a314 f i LIBCMT:stricmp.obj
 0001:000193bc       __ascii_stricmp            000000018001a3bc f   LIBCMT:stricmp.obj
 0001:000193f8       _stricmp                   000000018001a3f8 f   LIBCMT:stricmp.obj
 0001:00019440       _stricmp_l                 000000018001a440 f   LIBCMT:stricmp.obj
 0001:000194f4       _CRT_INIT                  000000018001a4f4 f   LIBCMT:dllcrt0.obj
 0001:00019654       _DllMainCRTStartup         000000018001a654 f   LIBCMT:dllcrt0.obj
 0001:000197d0       strlen                     000000018001a7d0 f   LIBCMT:strlen.obj
 0001:00019878       _CxxThrowException         000000018001a878 f   LIBCMT:throw.obj
 0001:00019940       ??_Etype_info@@UEAAPEAXI@Z 000000018001a940 f i LIBCMT:typinfo.obj
 0001:00019940       ??_Gtype_info@@UEAAPEAXI@Z 000000018001a940 f i LIBCMT:typinfo.obj
 0001:0001997c       _fpmath                    000000018001a97c f   LIBCMT:fpinit.obj
 0001:00019984       _cfltcvt_init              000000018001a984 f   LIBCMT:fpinit.obj
 0001:00019a0c       ??0exception@std@@QEAA@AEBQEBDH@Z 000000018001aa0c f   LIBCMT:stdexcpt.obj
 0001:00019a28       ??0exception@std@@QEAA@AEBV01@@Z 000000018001aa28 f   LIBCMT:stdexcpt.obj
 0001:00019a54       ??1exception@std@@UEAA@XZ  000000018001aa54 f   LIBCMT:stdexcpt.obj
 0001:00019a64       ??4exception@std@@QEAAAEAV01@AEBV01@@Z 000000018001aa64 f   LIBCMT:stdexcpt.obj
 0001:00019aa8       ??_Gexception@std@@UEAAPEAXI@Z 000000018001aaa8 f i LIBCMT:stdexcpt.obj
 0001:00019aa8       ??_Eexception@std@@UEAAPEAXI@Z 000000018001aaa8 f i LIBCMT:stdexcpt.obj
 0001:00019ae4       ?_Copy_str@exception@std@@AEAAXPEBD@Z 000000018001aae4 f   LIBCMT:stdexcpt.obj
 0001:00019b40       ?_Tidy@exception@std@@AEAAXXZ 000000018001ab40 f   LIBCMT:stdexcpt.obj
 0001:00019b68       ?what@exception@std@@UEBAPEBDXZ 000000018001ab68 f   LIBCMT:stdexcpt.obj
 0001:00019b7c       __raise_securityfailure    000000018001ab7c f   LIBCMT:gs_report.obj
 0001:00019bc8       __report_gsfailure         000000018001abc8 f   LIBCMT:gs_report.obj
 0001:00019c9c       __isa_available_init       000000018001ac9c f   LIBCMT:cpu_disp.obj
 0001:00019e40       __crtCorExitProcess        000000018001ae40 f   LIBCMT:crt0dat.obj
 0001:00019e84       __crtExitProcess           000000018001ae84 f   LIBCMT:crt0dat.obj
 0001:00019e9c       __freeCrtMemory            000000018001ae9c f   LIBCMT:crt0dat.obj
 0001:00019fe4       _amsg_exit                 000000018001afe4 f   LIBCMT:crt0dat.obj
 0001:0001a00c       _cexit                     000000018001b00c f   LIBCMT:crt0dat.obj
 0001:0001a01c       _cinit                     000000018001b01c f   LIBCMT:crt0dat.obj
 0001:0001a0b4       _exit                      000000018001b0b4 f   LIBCMT:crt0dat.obj
 0001:0001a0c0       _init_pointers             000000018001b0c0 f   LIBCMT:crt0dat.obj
 0001:0001a16c       _initterm_e                000000018001b16c f   LIBCMT:crt0dat.obj
 0001:0001a1a8       _lockexit                  000000018001b1a8 f   LIBCMT:crt0dat.obj
 0001:0001a1b4       _unlockexit                000000018001b1b4 f   LIBCMT:crt0dat.obj
 0001:0001a358       _msize                     000000018001b358 f   LIBCMT:msize.obj
 0001:0001a394       _calloc_crt                000000018001b394 f   LIBCMT:crtheap.obj
 0001:0001a414       _malloc_crt                000000018001b414 f   LIBCMT:crtheap.obj
 0001:0001a490       _realloc_crt               000000018001b490 f   LIBCMT:crtheap.obj
 0001:0001a514       __C_specific_handler       000000018001b514 f   LIBCMT:chandler.obj
 0001:0001a6f8       _initp_misc_purevirt       000000018001b6f8 f   LIBCMT:inithelp.obj
 0001:0001a700       _callnewh                  000000018001b700 f   LIBCMT:handler.obj
 0001:0001a734       _initp_heap_handler        000000018001b734 f   LIBCMT:handler.obj
 0001:0001a73c       _call_reportfault          000000018001b73c f   LIBCMT:invarg.obj
 0001:0001a830       _initp_misc_invarg         000000018001b830 f   LIBCMT:invarg.obj
 0001:0001a838       _invalid_parameter         000000018001b838 f   LIBCMT:invarg.obj
 0001:0001a8a0       _invalid_parameter_noinfo  000000018001b8a0 f   LIBCMT:invarg.obj
 0001:0001a8c0       _invoke_watson             000000018001b8c0 f   LIBCMT:invarg.obj
 0001:0001a8fc       memcpy_s                   000000018001b8fc f   LIBCMT:memcpy_s.obj
 0001:0001a984       wcscat_s                   000000018001b984 f   LIBCMT:wcscat_s.obj
 0001:0001aa0c       wcscpy_s                   000000018001ba0c f   LIBCMT:wcscpy_s.obj
 0001:0001aa78       wcslen                     000000018001ba78 f   LIBCMT:wcslen.obj
 0001:0001aa94       wcsncat_s                  000000018001ba94 f   LIBCMT:wcsncat_s.obj
 0001:0001ab7c       _set_error_mode            000000018001bb7c f   LIBCMT:errmode.obj
 0001:0001abbc       _itow_s                    000000018001bbbc f   LIBCMT:xtows.obj
 0001:0001acf4       _fflush_nolock             000000018001bcf4 f   LIBCMT:fflush.obj
 0001:0001ad40       _flush                     000000018001bd40 f   LIBCMT:fflush.obj
 0001:0001adbc       _flushall                  000000018001bdbc f   LIBCMT:fflush.obj
 0001:0001adc8       fflush                     000000018001bdc8 f   LIBCMT:fflush.obj
 0001:0001aef4       setvbuf                    000000018001bef4 f   LIBCMT:setvbuf.obj
 0001:0001b00c       fwprintf                   000000018001c00c f   LIBCMT:fwprintf.obj
 0001:0001b0a0       _vswprintf_c_l             000000018001c0a0 f   LIBCMT:vswprnc.obj
 0001:0001b0d8       _vswprintf_helper          000000018001c0d8 f   LIBCMT:vswprnc.obj
 0001:0001b1f4       __get_sigabrt              000000018001c1f4 f   LIBCMT:winsig.obj
 0001:0001b204       _initp_misc_winsig         000000018001c204 f   LIBCMT:winsig.obj
 0001:0001b224       raise                      000000018001c224 f   LIBCMT:winsig.obj
 0001:0001b458       __crtMessageBoxW           000000018001c458 f   LIBCMT:crtmboxw.obj
 0001:0001b6cc       __GSHandlerCheck           000000018001c6cc f   LIBCMT:gshandler.obj
 0001:0001b6ec       __GSHandlerCheckCommon     000000018001c6ec f   LIBCMT:gshandler.obj
 0001:0001b750       _FF_MSGBANNER              000000018001c750 f   LIBCMT:crt0msg.obj
 0001:0001b794       _GET_RTERRMSG              000000018001c794 f   LIBCMT:crt0msg.obj
 0001:0001b7c4       _NMSG_WRITE                000000018001c7c4 f   LIBCMT:crt0msg.obj
 0001:0001ba34       __doserrno                 000000018001ca34 f   LIBCMT:dosmap.obj
 0001:0001ba54       _dosmaperr                 000000018001ca54 f   LIBCMT:dosmap.obj
 0001:0001baa4       _errno                     000000018001caa4 f   LIBCMT:dosmap.obj
 0001:0001bac4       _get_errno_from_oserr      000000018001cac4 f   LIBCMT:dosmap.obj
 0001:0001bb14       _heap_init                 000000018001cb14 f   LIBCMT:heapinit.obj
 0001:0001bb34       _heap_term                 000000018001cb34 f   LIBCMT:heapinit.obj
 0001:0001bb40       _fcloseall                 000000018001cb40 f   LIBCMT:closeall.obj
 0001:0001bbe8       _lock                      000000018001cbe8 f   LIBCMT:mlock.obj
 0001:0001bc2c       _mtdeletelocks             000000018001cc2c f   LIBCMT:mlock.obj
 0001:0001bcb4       _mtinitlocknum             000000018001ccb4 f   LIBCMT:mlock.obj
 0001:0001bd74       _mtinitlocks               000000018001cd74 f   LIBCMT:mlock.obj
 0001:0001bdd8       _unlock                    000000018001cdd8 f   LIBCMT:mlock.obj
 0001:0001bdf0       _fileno                    000000018001cdf0 f   LIBCMT:fileno.obj
 0001:0001be18       _ftbuf                     000000018001ce18 f   LIBCMT:_sftbuf.obj
 0001:0001be50       _stbuf                     000000018001ce50 f   LIBCMT:_sftbuf.obj
 0001:0001bf20       _output_l                  000000018001cf20 f   LIBCMT:output.obj
 0001:0001ca60       _ioinit                    000000018001da60 f   LIBCMT:ioinit.obj
 0001:0001cd90       _ioterm                    000000018001dd90 f   LIBCMT:ioinit.obj
 0001:0001ce04       __addlocaleref             000000018001de04 f   LIBCMT:localref.obj
 0001:0001ce90       __freetlocinfo             000000018001de90 f   LIBCMT:localref.obj
 0001:0001d028       __removelocaleref          000000018001e028 f   LIBCMT:localref.obj
 0001:0001d0cc       __updatetlocinfo           000000018001e0cc f   LIBCMT:localref.obj
 0001:0001d144       _updatetlocinfoEx_nolock   000000018001e144 f   LIBCMT:localref.obj
 0001:0001d1a8       __initmbctable             000000018001e1a8 f   LIBCMT:mbctype.obj
 0001:0001d4c4       __updatetmbcinfo           000000018001e4c4 f   LIBCMT:mbctype.obj
 0001:0001d580       _setmbcp                   000000018001e580 f   LIBCMT:mbctype.obj
 0001:0001d7c4       _setmbcp_nolock            000000018001e7c4 f   LIBCMT:mbctype.obj
 0001:0001da74       _tolower_l                 000000018001ea74 f   LIBCMT:tolower.obj
 0001:0001dbc8       tolower                    000000018001ebc8 f   LIBCMT:tolower.obj
 0001:0001dbe8       _freefls                   000000018001ebe8 f   LIBCMT:tidtable.obj
 0001:0001dd1c       _freeptd                   000000018001ed1c f   LIBCMT:tidtable.obj
 0001:0001dd58       _getptd                    000000018001ed58 f   LIBCMT:tidtable.obj
 0001:0001dd7c       _getptd_noexit             000000018001ed7c f   LIBCMT:tidtable.obj
 0001:0001de00       _initptd                   000000018001ee00 f   LIBCMT:tidtable.obj
 0001:0001dec4       _mtinit                    000000018001eec4 f   LIBCMT:tidtable.obj
 0001:0001df44       _mtterm                    000000018001ef44 f   LIBCMT:tidtable.obj
 0001:0001df68       _locterm                   000000018001ef68 f   LIBCMT:wsetloca.obj
 0001:0001dfb0       _XcptFilter                000000018001efb0 f   LIBCMT:winxfltr.obj
 0001:0001e17c       __CppXcptFilter            000000018001f17c f   LIBCMT:winxfltr.obj
 0001:0001e190       _setargv                   000000018001f190 f   LIBCMT:stdargv.obj
 0001:0001e44c       _setenvp                   000000018001f44c f   LIBCMT:stdenvp.obj
 0001:0001e580       __security_init_cookie     000000018001f580 f   LIBCMT:gs_support.obj
 0001:0001e62c       DllMain                    000000018001f62c f   LIBCMT:dllmain.obj
 0001:0001e634       __crtGetEnvironmentStringsA 000000018001f634 f   LIBCMT:a_env.obj
 0001:0001e728       __crtCaptureCurrentContext 000000018001f728 f   LIBCMT:winapisupp.obj
 0001:0001e798       __crtCapturePreviousContext 000000018001f798 f   LIBCMT:winapisupp.obj
 0001:0001e80c       __crtFlsAlloc              000000018001f80c f   LIBCMT:winapisupp.obj
 0001:0001e828       __crtFlsFree               000000018001f828 f   LIBCMT:winapisupp.obj
 0001:0001e844       __crtFlsGetValue           000000018001f844 f   LIBCMT:winapisupp.obj
 0001:0001e860       __crtFlsSetValue           000000018001f860 f   LIBCMT:winapisupp.obj
 0001:0001e87c       __crtInitializeCriticalSectionEx 000000018001f87c f   LIBCMT:winapisupp.obj
 0001:0001e8a8       __crtIsPackagedApp         000000018001f8a8 f   LIBCMT:winapisupp.obj
 0001:0001e8f4       __crtLoadWinApiPointers    000000018001f8f4 f   LIBCMT:winapisupp.obj
 0001:0001ecf0       __crtSleep                 000000018001fcf0 f   LIBCMT:winapisupp.obj
 0001:0001ecf8       __crtTerminateProcess      000000018001fcf8 f   LIBCMT:winapisupp.obj
 0001:0001ed18       __crtUnhandledException    000000018001fd18 f   LIBCMT:winapisupp.obj
 0001:0001ed38       _RTC_Initialize            000000018001fd38 f   LIBCMT:initsect.obj
 0001:0001ed70       _RTC_Terminate             000000018001fd70 f   LIBCMT:initsect.obj
 0001:0001eda8       __DestructExceptionObject  000000018001fda8 f   LIBCMT:frame.obj
 0001:0001ee18       ?terminate@@YAXXZ          000000018001fe18 f   LIBCMT:hooks.obj
 0001:0001ee38       _initp_eh_hooks            000000018001fe38 f   LIBCMT:hooks.obj
 0001:0001ee70       strcmp                     000000018001fe70 f   LIBCMT:strcmp.obj
 0001:0001eed8       ?_Type_info_dtor@type_info@@CAXPEAV1@@Z 000000018001fed8 f   LIBCMT:typname.obj
 0001:0001ef44       _cfltcvt                   000000018001ff44 f   LIBCMT:cvt.obj
 0001:0001ef68       _cfltcvt_l                 000000018001ff68 f   LIBCMT:cvt.obj
 0001:0001efe8       _cftoa_l                   000000018001ffe8 f   LIBCMT:cvt.obj
 0001:0001f594       _cftoe_l                   0000000180020594 f   LIBCMT:cvt.obj
 0001:0001f7f0       _cftof_l                   00000001800207f0 f   LIBCMT:cvt.obj
 0001:0001f8c4       _cftog_l                   00000001800208c4 f   LIBCMT:cvt.obj
 0001:0001f9f8       _cropzeros                 00000001800209f8 f   LIBCMT:cvt.obj
 0001:0001fa00       _cropzeros_l               0000000180020a00 f   LIBCMT:cvt.obj
 0001:0001fa98       _fassign                   0000000180020a98 f   LIBCMT:cvt.obj
 0001:0001faa0       _fassign_l                 0000000180020aa0 f   LIBCMT:cvt.obj
 0001:0001fae0       _forcdecpt                 0000000180020ae0 f   LIBCMT:cvt.obj
 0001:0001fae8       _forcdecpt_l               0000000180020ae8 f   LIBCMT:cvt.obj
 0001:0001fb68       _positive                  0000000180020b68 f   LIBCMT:cvt.obj
 0001:0001fb7c       _initp_misc_cfltcvt_tab    0000000180020b7c f   LIBCMT:cmiscdat.obj
 0001:0001fbb8       strcpy_s                   0000000180020bb8 f   LIBCMT:strcpy_s.obj
 0001:0001fc1c       __crt_debugger_hook        0000000180020c1c f   LIBCMT:dbghook.obj
 0001:0001fc30       _FindPESection             0000000180020c30 f   LIBCMT:pesect.obj
 0001:0001fc80       _IsNonwritableInCurrentImage 0000000180020c80 f   LIBCMT:pesect.obj
 0001:0001fcd0       _ValidateImageBase         0000000180020cd0 f   LIBCMT:pesect.obj
 0001:0001fd00       _initp_misc_rand_s         0000000180020d00 f   LIBCMT:rand_s.obj
 0001:0001fd08       realloc                    0000000180020d08 f   LIBCMT:realloc.obj
 0001:0001fddc       _calloc_impl               0000000180020ddc f   LIBCMT:calloc_impl.obj
 0001:0001fe90       _local_unwind              0000000180020e90 f   LIBCMT:jmpuwind.obj
 0001:0001fec0       _NLG_Notify                0000000180020ec0 f   LIBCMT:jmpuwind.obj
 0001:0001fee0       __NLG_Dispatch2            0000000180020ee0 f   LIBCMT:jmpuwind.obj
 0001:0001fef0       __NLG_Return2              0000000180020ef0 f   LIBCMT:jmpuwind.obj
 0001:0001fef4       GetTableIndexFromLocaleName 0000000180020ef4 f   LIBCMT:winapinls.obj
 0001:0001ff80       __crtDownlevelLocaleNameToLCID 0000000180020f80 f   LIBCMT:winapinls.obj
 0001:0001ffb4       __crtLCMapStringEx         0000000180020fb4 f   LIBCMT:winapinls.obj
 0001:00020044       __wcsnicmp_ascii           0000000180021044 f   LIBCMT:winapinls.obj
 0001:000200b0       _get_fpsr                  00000001800210b0 f   LIBCMT:fpsr.obj
 0001:000200c0       _set_fpsr                  00000001800210c0 f   LIBCMT:fpsr.obj
 0001:000200ca       _fclrf                     00000001800210ca f   LIBCMT:fpsr.obj
 0001:000200de       _frnd                      00000001800210de f   LIBCMT:fpsr.obj
 0001:00020110       memset                     0000000180021110 f   LIBCMT:memset.obj
 0001:0002033c       _commit                    000000018002133c f   LIBCMT:commit.obj
 0001:00020414       _write                     0000000180021414 f   LIBCMT:write.obj
 0001:000204f8       _write_nolock              00000001800214f8 f   LIBCMT:write.obj
 0001:00020cec       _freebuf                   0000000180021cec f   LIBCMT:_freebuf.obj
 0001:00020d24       _woutput_l                 0000000180021d24 f   LIBCMT:woutput.obj
 0001:000218e4       _flsbuf                    00000001800228e4 f   LIBCMT:_flsbuf.obj
 0001:00021a70       wcsncpy_s                  0000000180022a70 f   LIBCMT:wcsncpy_s.obj
 0001:00021b3c       _fclose_nolock             0000000180022b3c f   LIBCMT:fclose.obj
 0001:00021bb8       fclose                     0000000180022bb8 f   LIBCMT:fclose.obj
 0001:00021c20       _isatty                    0000000180022c20 f   LIBCMT:isatty.obj
 0001:00021c80       _isleadbyte_l              0000000180022c80 f i LIBCMT:_wctype.obj
 0001:00021cc4       isleadbyte                 0000000180022cc4 f i LIBCMT:_wctype.obj
 0001:00021d0c       _get_printf_count_output   0000000180022d0c f   LIBCMT:printf.obj
 0001:00021d24       _wctomb_s_l                0000000180022d24 f   LIBCMT:wctomb.obj
 0001:00021eb0       wctomb_s                   0000000180022eb0 f   LIBCMT:wctomb.obj
 0001:00021ec4       __free_lconv_mon           0000000180022ec4 f   LIBCMT:initmon.obj
 0001:00021fd0       __free_lconv_num           0000000180022fd0 f   LIBCMT:initnum.obj
 0001:0002203c       __free_lc_time             000000018002303c f   LIBCMT:inittime.obj
 0001:00022724       __crtLCMapStringA          0000000180023724 f   LIBCMT:a_map.obj
 0001:00022934       __crtGetStringTypeA        0000000180023934 f   LIBCMT:a_str.obj
 0001:000229b0       _isctype_l                 00000001800239b0 f   LIBCMT:isctype.obj
 0001:00022aa0       memcmp                     0000000180023aa0 f   LIBCMT:memcmp.obj
 0001:00022be4       _ismbblead                 0000000180023be4 f   LIBCMT:ismbbyte.obj
 0001:00022c10       _CallSettingFrame          0000000180023c10 f   LIBCMT:handlers.obj
 0001:00022c50       _GetNextInstrOffset        0000000180023c50 f   LIBCMT:handlers.obj
 0001:00022c58       isdigit                    0000000180023c58 f i LIBCMT:_ctype.obj
 0001:00022cd4       strrchr                    0000000180023cd4 f   LIBCMT:strrchr.obj
 0001:00022e18       _fptostr                   0000000180023e18 f   LIBCMT:_fptostr.obj
 0001:00022ee4       __crt_atoflt_l             0000000180023ee4 f   LIBCMT:atodbl.obj
 0001:00022fb4       _atodbl_l                  0000000180023fb4 f   LIBCMT:atodbl.obj
 0001:0002307c       _atoflt_l                  000000018002407c f   LIBCMT:atodbl.obj
 0001:00023084       __dtold                    0000000180024084 f   LIBCMT:cfout.obj
 0001:00023154       _fltout2                   0000000180024154 f   LIBCMT:cfout.obj
 0001:0002320c       _fptrap                    000000018002420c f   LIBCMT:crt0fp.obj
 0001:00023230       __chkstk                   0000000180024230 f   LIBCMT:chkstk.obj
 0001:00023230       _alloca_probe              0000000180024230 f   LIBCMT:chkstk.obj
 0001:00023280       __lock_fhandle             0000000180024280 f   LIBCMT:osfinfo.obj
 0001:00023318       _free_osfhnd               0000000180024318 f   LIBCMT:osfinfo.obj
 0001:000233c4       _get_osfhandle             00000001800243c4 f   LIBCMT:osfinfo.obj
 0001:00023438       _unlock_fhandle            0000000180024438 f   LIBCMT:osfinfo.obj
 0001:00023464       _lseeki64                  0000000180024464 f   LIBCMT:lseeki64.obj
 0001:0002354c       _lseeki64_nolock           000000018002454c f   LIBCMT:lseeki64.obj
 0001:000235e0       _mbtowc_l                  00000001800245e0 f   LIBCMT:mbtowc.obj
 0001:00023734       mbtowc                     0000000180024734 f   LIBCMT:mbtowc.obj
 0001:0002373c       _putwch_nolock             000000018002473c f   LIBCMT:putwch.obj
 0001:00023798       _fputwc_nolock             0000000180024798 f   LIBCMT:fputwc.obj
 0001:0002398c       _getbuf                    000000018002498c f   LIBCMT:_getbuf.obj
 0001:000239e0       _close                     00000001800249e0 f   LIBCMT:close.obj
 0001:00023aa4       _close_nolock              0000000180024aa4 f   LIBCMT:close.obj
 0001:00023b60       _ld12tod                   0000000180024b60 f   LIBCMT:intrncvt.obj
 0001:00024118       _ld12tof                   0000000180025118 f   LIBCMT:intrncvt.obj
 0001:000246d0       __strgtold12_l             00000001800256d0 f   LIBCMT:strgtold.obj
 0001:00024f34       $I10_OUTPUT                0000000180025f34 f   LIBCMT:x10fout.obj
 0001:00025a0c       __termconout               0000000180026a0c f   LIBCMT:initcon.obj
 0001:00025a2c       __initconout               0000000180026a2c f   LIBCMT:initcon.obj
 0001:00025a68       _flswbuf                   0000000180026a68 f   LIBCMT:_flswbuf.obj
 0001:00025bf8       __mtold12                  0000000180026bf8 f   LIBCMT:mantold.obj
 0001:00025e20       IsProcessorFeaturePresent  0000000180026e20 f   kernel32:KERNEL32.dll
 0001:00025e26       RtlUnwindEx                0000000180026e26 f   kernel32:KERNEL32.dll
 0001:00025e2c       __delayLoadHelper2         0000000180026e2c f   DelayImp:delayhlp.obj
 0002:00000000       __imp_GetModuleHandleA     0000000180028000     kernel32:KERNEL32.dll
 0002:00000008       __imp_EncodePointer        0000000180028008     kernel32:KERNEL32.dll
 0002:00000010       __imp_DecodePointer        0000000180028010     kernel32:KERNEL32.dll
 0002:00000018       __imp_GetStdHandle         0000000180028018     kernel32:KERNEL32.dll
 0002:00000020       __imp_GetFileType          0000000180028020     kernel32:KERNEL32.dll
 0002:00000028       __imp_GetModuleFileNameW   0000000180028028     kernel32:KERNEL32.dll
 0002:00000030       __imp_GetModuleHandleExW   0000000180028030     kernel32:KERNEL32.dll
 0002:00000038       __imp_WriteConsoleW        0000000180028038     kernel32:KERNEL32.dll
 0002:00000040       __imp_IsProcessorFeaturePresent 0000000180028040     kernel32:KERNEL32.dll
 0002:00000048       __imp_GetLastError         0000000180028048     kernel32:KERNEL32.dll
 0002:00000050       __imp_HeapFree             0000000180028050     kernel32:KERNEL32.dll
 0002:00000058       __imp_HeapAlloc            0000000180028058     kernel32:KERNEL32.dll
 0002:00000060       __imp_EnterCriticalSection 0000000180028060     kernel32:KERNEL32.dll
 0002:00000068       __imp_LeaveCriticalSection 0000000180028068     kernel32:KERNEL32.dll
 0002:00000070       __imp_GetCommandLineA      0000000180028070     kernel32:KERNEL32.dll
 0002:00000078       __imp_GetCurrentThreadId   0000000180028078     kernel32:KERNEL32.dll
 0002:00000080       __imp_RtlPcToFileHeader    0000000180028080     kernel32:KERNEL32.dll
 0002:00000088       __imp_RaiseException       0000000180028088     kernel32:KERNEL32.dll
 0002:00000090       __imp_RtlLookupFunctionEntry 0000000180028090     kernel32:KERNEL32.dll
 0002:00000098       __imp_RtlUnwindEx          0000000180028098     kernel32:KERNEL32.dll
 0002:000000a0       __imp_IsDebuggerPresent    00000001800280a0     kernel32:KERNEL32.dll
 0002:000000a8       __imp_ExitProcess          00000001800280a8     kernel32:KERNEL32.dll
 0002:000000b0       __imp_GetProcAddress       00000001800280b0     kernel32:KERNEL32.dll
 0002:000000b8       __imp_MultiByteToWideChar  00000001800280b8     kernel32:KERNEL32.dll
 0002:000000c0       __imp_WideCharToMultiByte  00000001800280c0     kernel32:KERNEL32.dll
 0002:000000c8       __imp_HeapSize             00000001800280c8     kernel32:KERNEL32.dll
 0002:000000d0       __imp_OutputDebugStringW   00000001800280d0     kernel32:KERNEL32.dll
 0002:000000d8       __imp_LoadLibraryExW       00000001800280d8     kernel32:KERNEL32.dll
 0002:000000e0       __imp_WriteFile            00000001800280e0     kernel32:KERNEL32.dll
 0002:000000e8       __imp_GetProcessHeap       00000001800280e8     kernel32:KERNEL32.dll
 0002:000000f0       __imp_DeleteCriticalSection 00000001800280f0     kernel32:KERNEL32.dll
 0002:000000f8       __imp_GetStartupInfoW      00000001800280f8     kernel32:KERNEL32.dll
 0002:00000100       __imp_IsValidCodePage      0000000180028100     kernel32:KERNEL32.dll
 0002:00000108       __imp_GetACP               0000000180028108     kernel32:KERNEL32.dll
 0002:00000110       __imp_GetOEMCP             0000000180028110     kernel32:KERNEL32.dll
 0002:00000118       __imp_GetCPInfo            0000000180028118     kernel32:KERNEL32.dll
 0002:00000120       __imp_SetLastError         0000000180028120     kernel32:KERNEL32.dll
 0002:00000128       __imp_GetModuleFileNameA   0000000180028128     kernel32:KERNEL32.dll
 0002:00000130       __imp_QueryPerformanceCounter 0000000180028130     kernel32:KERNEL32.dll
 0002:00000138       __imp_GetCurrentProcessId  0000000180028138     kernel32:KERNEL32.dll
 0002:00000140       __imp_GetSystemTimeAsFileTime 0000000180028140     kernel32:KERNEL32.dll
 0002:00000148       __imp_GetEnvironmentStringsW 0000000180028148     kernel32:KERNEL32.dll
 0002:00000150       __imp_FreeEnvironmentStringsW 0000000180028150     kernel32:KERNEL32.dll
 0002:00000158       __imp_RtlCaptureContext    0000000180028158     kernel32:KERNEL32.dll
 0002:00000160       __imp_RtlVirtualUnwind     0000000180028160     kernel32:KERNEL32.dll
 0002:00000168       __imp_UnhandledExceptionFilter 0000000180028168     kernel32:KERNEL32.dll
 0002:00000170       __imp_SetUnhandledExceptionFilter 0000000180028170     kernel32:KERNEL32.dll
 0002:00000178       __imp_InitializeCriticalSectionAndSpinCount 0000000180028178     kernel32:KERNEL32.dll
 0002:00000180       __imp_Sleep                0000000180028180     kernel32:KERNEL32.dll
 0002:00000188       __imp_GetCurrentProcess    0000000180028188     kernel32:KERNEL32.dll
 0002:00000190       __imp_TerminateProcess     0000000180028190     kernel32:KERNEL32.dll
 0002:00000198       __imp_TlsAlloc             0000000180028198     kernel32:KERNEL32.dll
 0002:000001a0       __imp_TlsGetValue          00000001800281a0     kernel32:KERNEL32.dll
 0002:000001a8       __imp_TlsSetValue          00000001800281a8     kernel32:KERNEL32.dll
 0002:000001b0       __imp_TlsFree              00000001800281b0     kernel32:KERNEL32.dll
 0002:000001b8       __imp_GetModuleHandleW     00000001800281b8     kernel32:KERNEL32.dll
 0002:000001c0       __imp_FreeLibrary          00000001800281c0     kernel32:KERNEL32.dll
 0002:000001c8       __imp_HeapReAlloc          00000001800281c8     kernel32:KERNEL32.dll
 0002:000001d0       __imp_LCMapStringW         00000001800281d0     kernel32:KERNEL32.dll
 0002:000001d8       __imp_FlushFileBuffers     00000001800281d8     kernel32:KERNEL32.dll
 0002:000001e0       __imp_GetConsoleCP         00000001800281e0     kernel32:KERNEL32.dll
 0002:000001e8       __imp_GetConsoleMode       00000001800281e8     kernel32:KERNEL32.dll
 0002:000001f0       __imp_GetStringTypeW       00000001800281f0     kernel32:KERNEL32.dll
 0002:000001f8       __imp_SetStdHandle         00000001800281f8     kernel32:KERNEL32.dll
 0002:00000200       __imp_SetFilePointerEx     0000000180028200     kernel32:KERNEL32.dll
 0002:00000208       __imp_CloseHandle          0000000180028208     kernel32:KERNEL32.dll
 0002:00000210       __imp_CreateFileW          0000000180028210     kernel32:KERNEL32.dll
 0002:00000218       __imp_LoadLibraryExA       0000000180028218     kernel32:KERNEL32.dll
 0002:00000220       \177KERNEL32_NULL_THUNK_DATA 0000000180028220     kernel32:KERNEL32.dll
 0002:00000228       __xc_a                     0000000180028228     LIBCMT:crt0init.obj
 0002:00000298       _register_secp256k1_       0000000180028298     addon.obj
 0002:000002a0       __xc_z                     00000001800282a0     LIBCMT:crt0init.obj
 0002:000002a8       __xi_a                     00000001800282a8     LIBCMT:crt0init.obj
 0002:000002d0       __xi_z                     00000001800282d0     LIBCMT:crt0init.obj
 0002:000002d8       __xp_a                     00000001800282d8     LIBCMT:crt0init.obj
 0002:000002f8       __xp_z                     00000001800282f8     LIBCMT:crt0init.obj
 0002:00000300       __xt_a                     0000000180028300     LIBCMT:crt0init.obj
 0002:00000308       __xt_z                     0000000180028308     LIBCMT:crt0init.obj
 0002:00000350       __sz_node_exe              0000000180028350     node:node.exe
 0002:00000d00       ??_C@_0BC@CIJDGCDI@permission?5denied?$AA@ 0000000180028d00     libcpmt:syserror.obj
 0002:00000d18       ??_C@_0M@MIDIAGJP@file?5exists?$AA@ 0000000180028d18     libcpmt:syserror.obj
 0002:00000d28       ??_C@_0P@FDINDDOK@no?5such?5device?$AA@ 0000000180028d28     libcpmt:syserror.obj
 0002:00000d38       ??_C@_0BC@EJHOMAAK@filename?5too?5long?$AA@ 0000000180028d38     libcpmt:syserror.obj
 0002:00000d50       ??_C@_0BI@NGCEHDD@device?5or?5resource?5busy?$AA@ 0000000180028d50     libcpmt:syserror.obj
 0002:00000d68       ??_C@_08GLNPIFBN@io?5error?$AA@ 0000000180028d68     libcpmt:syserror.obj
 0002:00000d78       ??_C@_0BE@JIDOCPHM@directory?5not?5empty?$AA@ 0000000180028d78     libcpmt:syserror.obj
 0002:00000d90       ??_C@_0BB@FCMFBGOM@invalid?5argument?$AA@ 0000000180028d90     libcpmt:syserror.obj
 0002:00000da8       ??_C@_0BD@IJDJKDEA@no?5space?5on?5device?$AA@ 0000000180028da8     libcpmt:syserror.obj
 0002:00000dc0       ??_C@_0BK@NDOCBPGE@no?5such?5file?5or?5directory?$AA@ 0000000180028dc0     libcpmt:syserror.obj
 0002:00000de0       ??_C@_0BH@KEFGLDAF@function?5not?5supported?$AA@ 0000000180028de0     libcpmt:syserror.obj
 0002:00000df8       ??_C@_0BC@NJECKMKE@no?5lock?5available?$AA@ 0000000180028df8     libcpmt:syserror.obj
 0002:00000e10       ??_C@_0BC@ENOOLCNF@not?5enough?5memory?$AA@ 0000000180028e10     libcpmt:syserror.obj
 0002:00000e28       ??_C@_0BP@LKNGHENJ@resource?5unavailable?5try?5again?$AA@ 0000000180028e28     libcpmt:syserror.obj
 0002:00000e48       ??_C@_0BC@PPHBOELF@cross?5device?5link?$AA@ 0000000180028e48     libcpmt:syserror.obj
 0002:00000e60       ??_C@_0BD@MOLBPMEA@operation?5canceled?$AA@ 0000000180028e60     libcpmt:syserror.obj
 0002:00000e78       ??_C@_0BE@GHAFMPAH@too?5many?5files?5open?$AA@ 0000000180028e78     libcpmt:syserror.obj
 0002:00000e90       ??_C@_0BC@FNODOBAE@permission_denied?$AA@ 0000000180028e90     libcpmt:syserror.obj
 0002:00000ea8       ??_C@_0P@LNDJPBFK@address_in_use?$AA@ 0000000180028ea8     libcpmt:syserror.obj
 0002:00000eb8       ??_C@_0BG@IPMGOJF@address_not_available?$AA@ 0000000180028eb8     libcpmt:syserror.obj
 0002:00000ed0       ??_C@_0BN@LCBDHODA@address_family_not_supported?$AA@ 0000000180028ed0     libcpmt:syserror.obj
 0002:00000ef0       ??_C@_0BP@FOJJHMCC@connection_already_in_progress?$AA@ 0000000180028ef0     libcpmt:syserror.obj
 0002:00000f10       ??_C@_0BE@DLHHIBGN@bad_file_descriptor?$AA@ 0000000180028f10     libcpmt:syserror.obj
 0002:00000f28       ??_C@_0BD@OJMJDIGI@connection_aborted?$AA@ 0000000180028f28     libcpmt:syserror.obj
 0002:00000f40       ??_C@_0BD@NGKCIFEP@connection_refused?$AA@ 0000000180028f40     libcpmt:syserror.obj
 0002:00000f58       ??_C@_0BB@JOANDNCK@connection_reset?$AA@ 0000000180028f58     libcpmt:syserror.obj
 0002:00000f70       ??_C@_0BN@JLJNLKLK@destination_address_required?$AA@ 0000000180028f70     libcpmt:syserror.obj
 0002:00000f90       ??_C@_0M@IJGMGFGP@bad_address?$AA@ 0000000180028f90     libcpmt:syserror.obj
 0002:00000fa0       ??_C@_0BB@KKNHPPIN@host_unreachable?$AA@ 0000000180028fa0     libcpmt:syserror.obj
 0002:00000fb8       ??_C@_0BG@DJGBJIIK@operation_in_progress?$AA@ 0000000180028fb8     libcpmt:syserror.obj
 0002:00000fd0       ??_C@_0M@EGEKIIMP@interrupted?$AA@ 0000000180028fd0     libcpmt:syserror.obj
 0002:00000fe0       ??_C@_0BB@FFIHMIPJ@invalid_argument?$AA@ 0000000180028fe0     libcpmt:syserror.obj
 0002:00000ff8       ??_C@_0BC@FIFLCHLO@already_connected?$AA@ 0000000180028ff8     libcpmt:syserror.obj
 0002:00001010       ??_C@_0BE@GJJJJDDA@too_many_files_open?$AA@ 0000000180029010     libcpmt:syserror.obj
 0002:00001028       ??_C@_0N@HPMLKHPL@message_size?$AA@ 0000000180029028     libcpmt:syserror.obj
 0002:00001038       ??_C@_0BC@LEEIKBAL@filename_too_long?$AA@ 0000000180029038     libcpmt:syserror.obj
 0002:00001050       ??_C@_0N@FCPALPJK@network_down?$AA@ 0000000180029050     libcpmt:syserror.obj
 0002:00001060       ??_C@_0O@EHNDLHIG@network_reset?$AA@ 0000000180029060     libcpmt:syserror.obj
 0002:00001070       ??_C@_0BE@JFNJIDNF@network_unreachable?$AA@ 0000000180029070     libcpmt:syserror.obj
 0002:00001088       ??_C@_0BA@FDIJKJCL@no_buffer_space?$AA@ 0000000180029088     libcpmt:syserror.obj
 0002:00001098       ??_C@_0BD@JHIHCGKP@no_protocol_option?$AA@ 0000000180029098     libcpmt:syserror.obj
 0002:000010b0       ??_C@_0O@GBCLHHD@not_connected?$AA@ 00000001800290b0     libcpmt:syserror.obj
 0002:000010c0       ??_C@_0N@IMHKKLEM@not_a_socket?$AA@ 00000001800290c0     libcpmt:syserror.obj
 0002:000010d0       ??_C@_0BI@ICEIDKLJ@operation_not_supported?$AA@ 00000001800290d0     libcpmt:syserror.obj
 0002:000010e8       ??_C@_0BH@KAPBAIJF@protocol_not_supported?$AA@ 00000001800290e8     libcpmt:syserror.obj
 0002:00001100       ??_C@_0BE@GAOJJFPC@wrong_protocol_type?$AA@ 0000000180029100     libcpmt:syserror.obj
 0002:00001118       ??_C@_09NCHNLHPG@timed_out?$AA@ 0000000180029118     libcpmt:syserror.obj
 0002:00001128       ??_C@_0BG@GDGHKFDH@operation_would_block?$AA@ 0000000180029128     libcpmt:syserror.obj
 0002:00001140       ??_C@_0BN@LKKBCCDB@address?5family?5not?5supported?$AA@ 0000000180029140     libcpmt:syserror.obj
 0002:00001160       ??_C@_0P@LDMLAFHI@address?5in?5use?$AA@ 0000000180029160     libcpmt:syserror.obj
 0002:00001170       ??_C@_0BG@DHPCNBJB@address?5not?5available?$AA@ 0000000180029170     libcpmt:syserror.obj
 0002:00001188       ??_C@_0BC@DFIBIBIL@already?5connected?$AA@ 0000000180029188     libcpmt:syserror.obj
 0002:000011a0       ??_C@_0BH@CAKOHOMI@argument?5list?5too?5long?$AA@ 00000001800291a0     libcpmt:syserror.obj
 0002:000011b8       ??_C@_0BH@CGIMPKIM@argument?5out?5of?5domain?$AA@ 00000001800291b8     libcpmt:syserror.obj
 0002:000011d0       ??_C@_0M@KGHGGJGL@bad?5address?$AA@ 00000001800291d0     libcpmt:syserror.obj
 0002:000011e0       ??_C@_0BE@MPJPGCEO@bad?5file?5descriptor?$AA@ 00000001800291e0     libcpmt:syserror.obj
 0002:000011f8       ??_C@_0M@PMMIEFCP@bad?5message?$AA@ 00000001800291f8     libcpmt:syserror.obj
 0002:00001208       ??_C@_0M@KPHOFDBE@broken?5pipe?$AA@ 0000000180029208     libcpmt:syserror.obj
 0002:00001218       ??_C@_0BD@MGNDDEGM@connection?5aborted?$AA@ 0000000180029218     libcpmt:syserror.obj
 0002:00001230       ??_C@_0BP@KAIHPOGN@connection?5already?5in?5progress?$AA@ 0000000180029230     libcpmt:syserror.obj
 0002:00001250       ??_C@_0BD@PJLIIJEL@connection?5refused?$AA@ 0000000180029250     libcpmt:syserror.obj
 0002:00001268       ??_C@_0BB@IECNJNOI@connection?5reset?$AA@ 0000000180029268     libcpmt:syserror.obj
 0002:00001280       ??_C@_0BN@KDMIFEIP@destination?5address?5required?$AA@ 0000000180029280     libcpmt:syserror.obj
 0002:000012a0       ??_C@_0BI@BNCLIGPB@executable?5format?5error?$AA@ 00000001800292a0     libcpmt:syserror.obj
 0002:000012b8       ??_C@_0P@DNAJLBJK@file?5too?5large?$AA@ 00000001800292b8     libcpmt:syserror.obj
 0002:000012c8       ??_C@_0BB@DHFDFGDM@host?5unreachable?$AA@ 00000001800292c8     libcpmt:syserror.obj
 0002:000012e0       ??_C@_0BD@JPHBMONG@identifier?5removed?$AA@ 00000001800292e0     libcpmt:syserror.obj
 0002:000012f8       ??_C@_0BG@CDNPAGJK@illegal?5byte?5sequence?$AA@ 00000001800292f8     libcpmt:syserror.obj
 0002:00001310       ??_C@_0CD@BNPLBMNA@inappropriate?5io?5control?5operati@ 0000000180029310     libcpmt:syserror.obj
 0002:00001338       ??_C@_0N@OHAFKDEK@invalid?5seek?$AA@ 0000000180029338     libcpmt:syserror.obj
 0002:00001348       ??_C@_0P@FLLDBIDK@is?5a?5directory?$AA@ 0000000180029348     libcpmt:syserror.obj
 0002:00001358       ??_C@_0N@IFLPBIOP@message?5size?$AA@ 0000000180029358     libcpmt:syserror.obj
 0002:00001368       ??_C@_0N@KIIEAAIO@network?5down?$AA@ 0000000180029368     libcpmt:syserror.obj
 0002:00001378       ??_C@_0O@FNPDBHEE@network?5reset?$AA@ 0000000180029378     libcpmt:syserror.obj
 0002:00001388       ??_C@_0BE@IFNCKGE@network?5unreachable?$AA@ 0000000180029388     libcpmt:syserror.obj
 0002:000013a0       ??_C@_0BA@PFFCAOFK@no?5buffer?5space?$AA@ 00000001800293a0     libcpmt:syserror.obj
 0002:000013b0       ??_C@_0BB@IEPBLJHK@no?5child?5process?$AA@ 00000001800293b0     libcpmt:syserror.obj
 0002:000013c8       ??_C@_07PLECNNKG@no?5link?$AA@ 00000001800293c8     libcpmt:syserror.obj
 0002:000013d0       ??_C@_0BF@PBGGPKKE@no?5message?5available?$AA@ 00000001800293d0     libcpmt:syserror.obj
 0002:000013e8       ??_C@_0L@EDOLMPAK@no?5message?$AA@ 00000001800293e8     libcpmt:syserror.obj
 0002:000013f8       ??_C@_0BD@EAMBFIDF@no?5protocol?5option?$AA@ 00000001800293f8     libcpmt:syserror.obj
 0002:00001410       ??_C@_0BE@MKFDAFMP@no?5stream?5resources?$AA@ 0000000180029410     libcpmt:syserror.obj
 0002:00001428       ??_C@_0BK@IMCPHCBI@no?5such?5device?5or?5address?$AA@ 0000000180029428     libcpmt:syserror.obj
 0002:00001448       ??_C@_0BA@ENLPPKBN@no?5such?5process?$AA@ 0000000180029448     libcpmt:syserror.obj
 0002:00001458       ??_C@_0BA@DOCPFFJG@not?5a?5directory?$AA@ 0000000180029458     libcpmt:syserror.obj
 0002:00001468       ??_C@_0N@POEIPGGF@not?5a?5socket?$AA@ 0000000180029468     libcpmt:syserror.obj
 0002:00001478       ??_C@_0N@LGAPMMPI@not?5a?5stream?$AA@ 0000000180029478     libcpmt:syserror.obj
 0002:00001488       ??_C@_0O@GLMIBBEG@not?5connected?$AA@ 0000000180029488     libcpmt:syserror.obj
 0002:00001498       ??_C@_0O@NHEDABJP@not?5supported?$AA@ 0000000180029498     libcpmt:syserror.obj
 0002:000014a8       ??_C@_0BG@KDKHOPCO@operation?5in?5progress?$AA@ 00000001800294a8     libcpmt:syserror.obj
 0002:000014c0       ??_C@_0BI@OHIEJAAB@operation?5not?5permitted?$AA@ 00000001800294c0     libcpmt:syserror.obj
 0002:000014d8       ??_C@_0BI@LNEGIFLN@operation?5not?5supported?$AA@ 00000001800294d8     libcpmt:syserror.obj
 0002:000014f0       ??_C@_0BG@OEMDKMEE@operation?5would?5block?$AA@ 00000001800294f0     libcpmt:syserror.obj
 0002:00001508       ??_C@_0L@BLPOFLNJ@owner?5dead?$AA@ 0000000180029508     libcpmt:syserror.obj
 0002:00001518       ??_C@_0P@FNPOCJBE@protocol?5error?$AA@ 0000000180029518     libcpmt:syserror.obj
 0002:00001528       ??_C@_0BH@JPPPLHJB@protocol?5not?5supported?$AA@ 0000000180029528     libcpmt:syserror.obj
 0002:00001540       ??_C@_0BG@EICBIHDP@read?5only?5file?5system?$AA@ 0000000180029540     libcpmt:syserror.obj
 0002:00001558       ??_C@_0BO@BJBOMOEJ@resource?5deadlock?5would?5occur?$AA@ 0000000180029558     libcpmt:syserror.obj
 0002:00001578       ??_C@_0BE@GOIPJJHG@result?5out?5of?5range?$AA@ 0000000180029578     libcpmt:syserror.obj
 0002:00001590       ??_C@_0BG@MPLKFPAE@state?5not?5recoverable?$AA@ 0000000180029590     libcpmt:syserror.obj
 0002:000015a8       ??_C@_0P@DIIFGFCG@stream?5timeout?$AA@ 00000001800295a8     libcpmt:syserror.obj
 0002:000015b8       ??_C@_0P@IPFDMIFL@text?5file?5busy?$AA@ 00000001800295b8     libcpmt:syserror.obj
 0002:000015c8       ??_C@_09KJPPMAOI@timed?5out?$AA@ 00000001800295c8     libcpmt:syserror.obj
 0002:000015d8       ??_C@_0BO@HACHBEKI@too?5many?5files?5open?5in?5system?$AA@ 00000001800295d8     libcpmt:syserror.obj
 0002:000015f8       ??_C@_0P@HCOMKFCC@too?5many?5links?$AA@ 00000001800295f8     libcpmt:syserror.obj
 0002:00001608       ??_C@_0BO@EFGOJEF@too?5many?5symbolic?5link?5levels?$AA@ 0000000180029608     libcpmt:syserror.obj
 0002:00001628       ??_C@_0BA@KGKGOOJA@value?5too?5large?$AA@ 0000000180029628     libcpmt:syserror.obj
 0002:00001638       ??_C@_0BE@MIEJDDNH@wrong?5protocol?5type?$AA@ 0000000180029638     libcpmt:syserror.obj
 0002:00001658       ??_7bad_alloc@std@@6B@     0000000180029658     libcpmt:xthrow.obj
 0002:00001668       ??_C@_0P@GHFPNOJB@bad?5allocation?$AA@ 0000000180029668     libcpmt:xthrow.obj
 0002:00001678       ??_C@_06MEIMCGCF@_hypot?$AA@ 0000000180029678     LIBCMT:hypot.obj
 0002:00001680       ??_C@_17LGKOMLJ@?$AA?4?$AA?4?$AA?4?$AA?$AA@ 0000000180029680     LIBCMT:wassert.obj
 0002:00001688       ??_C@_13LBAGMAIH@?$AA?6?$AA?$AA@ 0000000180029688     LIBCMT:wassert.obj
 0002:0000168c       ??_C@_15IABLJNFO@?$AA?6?$AA?6?$AA?$AA@ 000000018002968c     LIBCMT:wassert.obj
 0002:00001698       ??_C@_1CE@OJBNHDMO@?$AAA?$AAs?$AAs?$AAe?$AAr?$AAt?$AAi?$AAo?$AAn?$AA?5?$AAf?$AAa?$AAi?$AAl?$AAe?$AAd?$AA?$CB?$AA?$AA@ 0000000180029698     LIBCMT:wassert.obj
 0002:000016c0       ??_C@_1BE@PHKBBGE@?$AAP?$AAr?$AAo?$AAg?$AAr?$AAa?$AAm?$AA?3?$AA?5?$AA?$AA@ 00000001800296c0     LIBCMT:wassert.obj
 0002:000016d8       ??_C@_1CO@EAEJAADC@?$AA?$DM?$AAp?$AAr?$AAo?$AAg?$AAr?$AAa?$AAm?$AA?5?$AAn?$AAa?$AAm?$AAe?$AA?5?$AAu?$AAn?$AAk?$AAn?$AAo?$AAw?$AAn?$AA?$DO?$AA?$AA@ 00000001800296d8     LIBCMT:wassert.obj
 0002:00001708       ??_C@_1O@HEMHKNDC@?$AAF?$AAi?$AAl?$AAe?$AA?3?$AA?5?$AA?$AA@ 0000000180029708     LIBCMT:wassert.obj
 0002:00001718       ??_C@_1O@KCAFKHJE@?$AAL?$AAi?$AAn?$AAe?$AA?3?$AA?5?$AA?$AA@ 0000000180029718     LIBCMT:wassert.obj
 0002:00001728       ??_C@_1BK@PEDCIPMA@?$AAE?$AAx?$AAp?$AAr?$AAe?$AAs?$AAs?$AAi?$AAo?$AAn?$AA?3?$AA?5?$AA?$AA@ 0000000180029728     LIBCMT:wassert.obj
 0002:00001750       ??_C@_1OA@EGMLFBHJ@?$AAF?$AAo?$AAr?$AA?5?$AAi?$AAn?$AAf?$AAo?$AAr?$AAm?$AAa?$AAt?$AAi?$AAo?$AAn?$AA?5?$AAo?$AAn?$AA?5?$AAh?$AAo?$AAw?$AA?5?$AAy?$AAo?$AAu?$AAr?$AA?5?$AAp?$AAr?$AAo?$AAg@ 0000000180029750     LIBCMT:wassert.obj
 0002:00001830       ??_C@_1HK@POCJMFGK@?$AA?$CI?$AAP?$AAr?$AAe?$AAs?$AAs?$AA?5?$AAR?$AAe?$AAt?$AAr?$AAy?$AA?5?$AAt?$AAo?$AA?5?$AAd?$AAe?$AAb?$AAu?$AAg?$AA?5?$AAt?$AAh?$AAe?$AA?5?$AAa?$AAp?$AAp?$AAl?$AAi?$AAc@ 0000000180029830     LIBCMT:wassert.obj
 0002:000018b0       ??_C@_1EK@MBDPDCGA@?$AAM?$AAi?$AAc?$AAr?$AAo?$AAs?$AAo?$AAf?$AAt?$AA?5?$AAV?$AAi?$AAs?$AAu?$AAa?$AAl?$AA?5?$AAC?$AA?$CL?$AA?$CL?$AA?5?$AAR?$AAu?$AAn?$AAt?$AAi?$AAm?$AAe?$AA?5?$AAL?$AAi?$AAb@ 00000001800298b0     LIBCMT:wassert.obj
 0002:00001900       _pDefaultRawDllMain        0000000180029900     LIBCMT:dllcrt0.obj
 0002:00001900       _pRawDllMain               0000000180029900     LIBCMT:dllcrt0.obj
 0002:00001958       ??_7type_info@@6B@         0000000180029958     LIBCMT:typinfo.obj
 0002:00001960       _FPinit                    0000000180029960     LIBCMT:fpinit.obj
 0002:00001970       ??_7exception@std@@6B@     0000000180029970     LIBCMT:stdexcpt.obj
 0002:00001980       ??_C@_0BC@EOODALEL@Unknown?5exception?$AA@ 0000000180029980     LIBCMT:stdexcpt.obj
 0002:000019a8       ??_C@_1BI@BGOHAHKC@?$AAm?$AAs?$AAc?$AAo?$AAr?$AAe?$AAe?$AA?4?$AAd?$AAl?$AAl?$AA?$AA@ 00000001800299a8     LIBCMT:crt0dat.obj
 0002:000019c0       ??_C@_0P@MIGLKIOC@CorExitProcess?$AA@ 00000001800299c0     LIBCMT:crt0dat.obj
 0002:000019d0       ??_C@_1BG@GOEBHBDC@?$AAU?$AAS?$AAE?$AAR?$AA3?$AA2?$AA?4?$AAD?$AAL?$AAL?$AA?$AA@ 00000001800299d0     LIBCMT:crtmboxw.obj
 0002:000019e8       ??_C@_0M@DLDCCGNP@MessageBoxW?$AA@ 00000001800299e8     LIBCMT:crtmboxw.obj
 0002:000019f8       ??_C@_0BA@HNOPNCHB@GetActiveWindow?$AA@ 00000001800299f8     LIBCMT:crtmboxw.obj
 0002:00001a08       ??_C@_0BD@HHGDFDBJ@GetLastActivePopup?$AA@ 0000000180029a08     LIBCMT:crtmboxw.obj
 0002:00001a20       ??_C@_0BK@DEKFELLI@GetUserObjectInformationW?$AA@ 0000000180029a20     LIBCMT:crtmboxw.obj
 0002:00001a40       ??_C@_0BI@DFKBFLJE@GetProcessWindowStation?$AA@ 0000000180029a40     LIBCMT:crtmboxw.obj
 0002:00001bd0       ??_C@_1FK@PGACCAFB@?$AAR?$AA6?$AA0?$AA0?$AA2?$AA?$AN?$AA?6?$AA?9?$AA?5?$AAf?$AAl?$AAo?$AAa?$AAt?$AAi?$AAn?$AAg?$AA?5?$AAp?$AAo?$AAi?$AAn?$AAt?$AA?5?$AAs?$AAu?$AAp?$AAp?$AAo?$AAr?$AAt?$AA?5@ 0000000180029bd0     LIBCMT:crt0msg.obj
 0002:00001c30       ??_C@_1FE@LLNEDJMD@?$AAR?$AA6?$AA0?$AA0?$AA8?$AA?$AN?$AA?6?$AA?9?$AA?5?$AAn?$AAo?$AAt?$AA?5?$AAe?$AAn?$AAo?$AAu?$AAg?$AAh?$AA?5?$AAs?$AAp?$AAa?$AAc?$AAe?$AA?5?$AAf?$AAo?$AAr?$AA?5?$AAa?$AAr@ 0000000180029c30     LIBCMT:crt0msg.obj
 0002:00001c90       ??_C@_1FI@HONFMGBI@?$AAR?$AA6?$AA0?$AA0?$AA9?$AA?$AN?$AA?6?$AA?9?$AA?5?$AAn?$AAo?$AAt?$AA?5?$AAe?$AAn?$AAo?$AAu?$AAg?$AAh?$AA?5?$AAs?$AAp?$AAa?$AAc?$AAe?$AA?5?$AAf?$AAo?$AAr?$AA?5?$AAe?$AAn@ 0000000180029c90     LIBCMT:crt0msg.obj
 0002:00001cf0       ??_C@_1EG@BEHAGFJD@?$AAR?$AA6?$AA0?$AA1?$AA0?$AA?$AN?$AA?6?$AA?9?$AA?5?$AAa?$AAb?$AAo?$AAr?$AAt?$AA?$CI?$AA?$CJ?$AA?5?$AAh?$AAa?$AAs?$AA?5?$AAb?$AAe?$AAe?$AAn?$AA?5?$AAc?$AAa?$AAl?$AAl?$AAe?$AAd@ 0000000180029cf0     LIBCMT:crt0msg.obj
 0002:00001d40       ??_C@_1FI@LOGNIKDM@?$AAR?$AA6?$AA0?$AA1?$AA6?$AA?$AN?$AA?6?$AA?9?$AA?5?$AAn?$AAo?$AAt?$AA?5?$AAe?$AAn?$AAo?$AAu?$AAg?$AAh?$AA?5?$AAs?$AAp?$AAa?$AAc?$AAe?$AA?5?$AAf?$AAo?$AAr?$AA?5?$AAt?$AAh@ 0000000180029d40     LIBCMT:crt0msg.obj
 0002:00001da0       ??_C@_1FK@BEOGODMC@?$AAR?$AA6?$AA0?$AA1?$AA7?$AA?$AN?$AA?6?$AA?9?$AA?5?$AAu?$AAn?$AAe?$AAx?$AAp?$AAe?$AAc?$AAt?$AAe?$AAd?$AA?5?$AAm?$AAu?$AAl?$AAt?$AAi?$AAt?$AAh?$AAr?$AAe?$AAa?$AAd?$AA?5@ 0000000180029da0     LIBCMT:crt0msg.obj
 0002:00001e00       ??_C@_1EC@JIBHAOPH@?$AAR?$AA6?$AA0?$AA1?$AA8?$AA?$AN?$AA?6?$AA?9?$AA?5?$AAu?$AAn?$AAe?$AAx?$AAp?$AAe?$AAc?$AAt?$AAe?$AAd?$AA?5?$AAh?$AAe?$AAa?$AAp?$AA?5?$AAe?$AAr?$AAr?$AAo?$AAr?$AA?$AN?$AA?6@ 0000000180029e00     LIBCMT:crt0msg.obj
 0002:00001e50       ??_C@_1FC@ECHBIFBC@?$AAR?$AA6?$AA0?$AA1?$AA9?$AA?$AN?$AA?6?$AA?9?$AA?5?$AAu?$AAn?$AAa?$AAb?$AAl?$AAe?$AA?5?$AAt?$AAo?$AA?5?$AAo?$AAp?$AAe?$AAn?$AA?5?$AAc?$AAo?$AAn?$AAs?$AAo?$AAl?$AAe?$AA?5@ 0000000180029e50     LIBCMT:crt0msg.obj
 0002:00001eb0       ??_C@_1GK@FHCKBEFA@?$AAR?$AA6?$AA0?$AA2?$AA4?$AA?$AN?$AA?6?$AA?9?$AA?5?$AAn?$AAo?$AAt?$AA?5?$AAe?$AAn?$AAo?$AAu?$AAg?$AAh?$AA?5?$AAs?$AAp?$AAa?$AAc?$AAe?$AA?5?$AAf?$AAo?$AAr?$AA?5?$AA_?$AAo@ 0000000180029eb0     LIBCMT:crt0msg.obj
 0002:00001f20       ??_C@_1EM@MAADIHMB@?$AAR?$AA6?$AA0?$AA2?$AA5?$AA?$AN?$AA?6?$AA?9?$AA?5?$AAp?$AAu?$AAr?$AAe?$AA?5?$AAv?$AAi?$AAr?$AAt?$AAu?$AAa?$AAl?$AA?5?$AAf?$AAu?$AAn?$AAc?$AAt?$AAi?$AAo?$AAn?$AA?5?$AAc@ 0000000180029f20     LIBCMT:crt0msg.obj
 0002:00001f70       ??_C@_1GK@MCAAGJMO@?$AAR?$AA6?$AA0?$AA2?$AA6?$AA?$AN?$AA?6?$AA?9?$AA?5?$AAn?$AAo?$AAt?$AA?5?$AAe?$AAn?$AAo?$AAu?$AAg?$AAh?$AA?5?$AAs?$AAp?$AAa?$AAc?$AAe?$AA?5?$AAf?$AAo?$AAr?$AA?5?$AAs?$AAt@ 0000000180029f70     LIBCMT:crt0msg.obj
 0002:00001fe0       ??_C@_1GK@MFGOKLAG@?$AAR?$AA6?$AA0?$AA2?$AA7?$AA?$AN?$AA?6?$AA?9?$AA?5?$AAn?$AAo?$AAt?$AA?5?$AAe?$AAn?$AAo?$AAu?$AAg?$AAh?$AA?5?$AAs?$AAp?$AAa?$AAc?$AAe?$AA?5?$AAf?$AAo?$AAr?$AA?5?$AAl?$AAo@ 0000000180029fe0     LIBCMT:crt0msg.obj
 0002:00002050       ??_C@_1EK@HHFLMAOL@?$AAR?$AA6?$AA0?$AA2?$AA8?$AA?$AN?$AA?6?$AA?9?$AA?5?$AAu?$AAn?$AAa?$AAb?$AAl?$AAe?$AA?5?$AAt?$AAo?$AA?5?$AAi?$AAn?$AAi?$AAt?$AAi?$AAa?$AAl?$AAi?$AAz?$AAe?$AA?5?$AAh?$AAe@ 000000018002a050     LIBCMT:crt0msg.obj
 0002:000020a0       ??_C@_1DO@BMFCDCD@?$AAR?$AA6?$AA0?$AA3?$AA0?$AA?$AN?$AA?6?$AA?9?$AA?5?$AAC?$AAR?$AAT?$AA?5?$AAn?$AAo?$AAt?$AA?5?$AAi?$AAn?$AAi?$AAt?$AAi?$AAa?$AAl?$AAi?$AAz?$AAe?$AAd?$AA?$AN?$AA?6?$AA?$AA@ 000000018002a0a0     LIBCMT:crt0msg.obj
 0002:000020e0       ??_C@_1MG@ENCOOIDF@?$AAR?$AA6?$AA0?$AA3?$AA1?$AA?$AN?$AA?6?$AA?9?$AA?5?$AAA?$AAt?$AAt?$AAe?$AAm?$AAp?$AAt?$AA?5?$AAt?$AAo?$AA?5?$AAi?$AAn?$AAi?$AAt?$AAi?$AAa?$AAl?$AAi?$AAz?$AAe?$AA?5?$AAt@ 000000018002a0e0     LIBCMT:crt0msg.obj
 0002:000021b0       ??_C@_1GG@GOPILAJP@?$AAR?$AA6?$AA0?$AA3?$AA2?$AA?$AN?$AA?6?$AA?9?$AA?5?$AAn?$AAo?$AAt?$AA?5?$AAe?$AAn?$AAo?$AAu?$AAg?$AAh?$AA?5?$AAs?$AAp?$AAa?$AAc?$AAe?$AA?5?$AAf?$AAo?$AAr?$AA?5?$AAl?$AAo@ 000000018002a1b0     LIBCMT:crt0msg.obj
 0002:00002220       ??_C@_1BOO@KGEDBGAJ@?$AAR?$AA6?$AA0?$AA3?$AA3?$AA?$AN?$AA?6?$AA?9?$AA?5?$AAA?$AAt?$AAt?$AAe?$AAm?$AAp?$AAt?$AA?5?$AAt?$AAo?$AA?5?$AAu?$AAs?$AAe?$AA?5?$AAM?$AAS?$AAI?$AAL?$AA?5?$AAc?$AAo?$AAd@ 000000018002a220     LIBCMT:crt0msg.obj
 0002:00002410       ??_C@_1GG@MKFPEKFO@?$AAR?$AA6?$AA0?$AA3?$AA4?$AA?$AN?$AA?6?$AA?9?$AA?5?$AAi?$AAn?$AAc?$AAo?$AAn?$AAs?$AAi?$AAs?$AAt?$AAe?$AAn?$AAt?$AA?5?$AAo?$AAn?$AAe?$AAx?$AAi?$AAt?$AA?5?$AAb?$AAe?$AAg@ 000000018002a410     LIBCMT:crt0msg.obj
 0002:00002478       ??_C@_1BO@BFCDCGC@?$AAD?$AAO?$AAM?$AAA?$AAI?$AAN?$AA?5?$AAe?$AAr?$AAr?$AAo?$AAr?$AA?$AN?$AA?6?$AA?$AA@ 000000018002a478     LIBCMT:crt0msg.obj
 0002:00002498       ??_C@_1BK@KMOMNAAI@?$AAS?$AAI?$AAN?$AAG?$AA?5?$AAe?$AAr?$AAr?$AAo?$AAr?$AA?$AN?$AA?6?$AA?$AA@ 000000018002a498     LIBCMT:crt0msg.obj
 0002:000024b8       ??_C@_1BM@JBBEPPHI@?$AAT?$AAL?$AAO?$AAS?$AAS?$AA?5?$AAe?$AAr?$AAr?$AAo?$AAr?$AA?$AN?$AA?6?$AA?$AA@ 000000018002a4b8     LIBCMT:crt0msg.obj
 0002:000024d4       ??_C@_15JNBOKNOG@?$AA?$AN?$AA?6?$AA?$AA@ 000000018002a4d4     LIBCMT:crt0msg.obj
 0002:000024e0       ??_C@_1BO@BKOMIGKJ@?$AAr?$AAu?$AAn?$AAt?$AAi?$AAm?$AAe?$AA?5?$AAe?$AAr?$AAr?$AAo?$AAr?$AA?5?$AA?$AA@ 000000018002a4e0     LIBCMT:crt0msg.obj
 0002:00002500       ??_C@_1DE@JNGNBFGO@?$AAR?$AAu?$AAn?$AAt?$AAi?$AAm?$AAe?$AA?5?$AAE?$AAr?$AAr?$AAo?$AAr?$AA?$CB?$AA?6?$AA?6?$AAP?$AAr?$AAo?$AAg?$AAr?$AAa?$AAm?$AA?3?$AA?5?$AA?$AA@ 000000018002a500     LIBCMT:crt0msg.obj
 0002:00002534       ??_C@_06OJHGLDPL@?$CInull?$CJ?$AA@ 000000018002a534     LIBCMT:output.obj
 0002:00002540       ??_C@_1O@CEDCILHN@?$AA?$CI?$AAn?$AAu?$AAl?$AAl?$AA?$CJ?$AA?$AA@ 000000018002a540     LIBCMT:output.obj
 0002:00002550       __lookuptable              000000018002a550     LIBCMT:output.obj
 0002:000025d0       ??_C@_1M@HPNHIDJI@?$AAj?$AAa?$AA?9?$AAJ?$AAP?$AA?$AA@ 000000018002a5d0     LIBCMT:mbctype.obj
 0002:000025e0       ??_C@_1M@BIBDDEMK@?$AAz?$AAh?$AA?9?$AAC?$AAN?$AA?$AA@ 000000018002a5e0     LIBCMT:mbctype.obj
 0002:000025f0       ??_C@_1M@JLOOOEGK@?$AAk?$AAo?$AA?9?$AAK?$AAR?$AA?$AA@ 000000018002a5f0     LIBCMT:mbctype.obj
 0002:00002600       ??_C@_1M@CLNBBOPM@?$AAz?$AAh?$AA?9?$AAT?$AAW?$AA?$AA@ 000000018002a600     LIBCMT:mbctype.obj
 0002:0000260c       ??_C@_03KOEHGMDN@Sun?$AA@  000000018002a60c     LIBCMT:nlsdata.obj
 0002:00002610       ??_C@_03PDAGKDH@Mon?$AA@   000000018002a610     LIBCMT:nlsdata.obj
 0002:00002614       ??_C@_03NAGEINEP@Tue?$AA@  000000018002a614     LIBCMT:nlsdata.obj
 0002:00002618       ??_C@_03MHOMLAJA@Wed?$AA@  000000018002a618     LIBCMT:nlsdata.obj
 0002:0000261c       ??_C@_03IOFIKPDN@Thu?$AA@  000000018002a61c     LIBCMT:nlsdata.obj
 0002:00002620       ??_C@_03IDIOELNC@Fri?$AA@  000000018002a620     LIBCMT:nlsdata.obj
 0002:00002624       ??_C@_03FEFJNEK@Sat?$AA@   000000018002a624     LIBCMT:nlsdata.obj
 0002:00002628       ??_C@_06OOPIFAJ@Sunday?$AA@ 000000018002a628     LIBCMT:nlsdata.obj
 0002:00002630       ??_C@_06JLEDEDGH@Monday?$AA@ 000000018002a630     LIBCMT:nlsdata.obj
 0002:00002638       ??_C@_07BAAGCFCM@Tuesday?$AA@ 000000018002a638     LIBCMT:nlsdata.obj
 0002:00002640       ??_C@_09DLIGFAKA@Wednesday?$AA@ 000000018002a640     LIBCMT:nlsdata.obj
 0002:00002650       ??_C@_08HACCIKIA@Thursday?$AA@ 000000018002a650     LIBCMT:nlsdata.obj
 0002:0000265c       ??_C@_06JECMNKMI@Friday?$AA@ 000000018002a65c     LIBCMT:nlsdata.obj
 0002:00002668       ??_C@_08INBOOONO@Saturday?$AA@ 000000018002a668     LIBCMT:nlsdata.obj
 0002:00002674       ??_C@_03JIHJHPIE@Jan?$AA@  000000018002a674     LIBCMT:nlsdata.obj
 0002:00002678       ??_C@_03HJBDCHOM@Feb?$AA@  000000018002a678     LIBCMT:nlsdata.obj
 0002:0000267c       ??_C@_03ODNJBKGA@Mar?$AA@  000000018002a67c     LIBCMT:nlsdata.obj
 0002:00002680       ??_C@_03LEOLGMJP@Apr?$AA@  000000018002a680     LIBCMT:nlsdata.obj
 0002:00002684       ??_C@_03CNMDKL@May?$AA@    000000018002a684     LIBCMT:nlsdata.obj
 0002:00002688       ??_C@_03IDFGHECI@Jun?$AA@  000000018002a688     LIBCMT:nlsdata.obj
 0002:0000268c       ??_C@_03LBGABGKK@Jul?$AA@  000000018002a68c     LIBCMT:nlsdata.obj
 0002:00002690       ??_C@_03IFJFEIGA@Aug?$AA@  000000018002a690     LIBCMT:nlsdata.obj
 0002:00002694       ??_C@_03GGCAPAJC@Sep?$AA@  000000018002a694     LIBCMT:nlsdata.obj
 0002:00002698       ??_C@_03BMAOKBAD@Oct?$AA@  000000018002a698     LIBCMT:nlsdata.obj
 0002:0000269c       ??_C@_03JPJOFNIA@Nov?$AA@  000000018002a69c     LIBCMT:nlsdata.obj
 0002:000026a0       ??_C@_03MKABNOCG@Dec?$AA@  000000018002a6a0     LIBCMT:nlsdata.obj
 0002:000026a8       ??_C@_07CGJPFGJA@January?$AA@ 000000018002a6a8     LIBCMT:nlsdata.obj
 0002:000026b0       ??_C@_08GNJGEPFN@February?$AA@ 000000018002a6b0     LIBCMT:nlsdata.obj
 0002:000026bc       ??_C@_05HPCKOFNC@March?$AA@ 000000018002a6bc     LIBCMT:nlsdata.obj
 0002:000026c4       ??_C@_05DMJDNLEJ@April?$AA@ 000000018002a6c4     LIBCMT:nlsdata.obj
 0002:000026cc       ??_C@_04CNLMGBGM@June?$AA@ 000000018002a6cc     LIBCMT:nlsdata.obj
 0002:000026d4       ??_C@_04MIEPOIFP@July?$AA@ 000000018002a6d4     LIBCMT:nlsdata.obj
 0002:000026dc       ??_C@_06LBBHFDDG@August?$AA@ 000000018002a6dc     LIBCMT:nlsdata.obj
 0002:000026e8       ??_C@_09BHHEALKD@September?$AA@ 000000018002a6e8     LIBCMT:nlsdata.obj
 0002:000026f8       ??_C@_07JJNFCEND@October?$AA@ 000000018002a6f8     LIBCMT:nlsdata.obj
 0002:00002700       ??_C@_08HCHEGEOA@November?$AA@ 000000018002a700     LIBCMT:nlsdata.obj
 0002:00002710       ??_C@_08EDHMEBNP@December?$AA@ 000000018002a710     LIBCMT:nlsdata.obj
 0002:0000271c       ??_C@_02DEDBPAFC@AM?$AA@   000000018002a71c     LIBCMT:nlsdata.obj
 0002:00002720       ??_C@_02CJNFDJBF@PM?$AA@   000000018002a720     LIBCMT:nlsdata.obj
 0002:00002728       ??_C@_08BPBNCDIB@MM?1dd?1yy?$AA@ 000000018002a728     LIBCMT:nlsdata.obj
 0002:00002738       ??_C@_0BE@CKGJFCPC@dddd?0?5MMMM?5dd?0?5yyyy?$AA@ 000000018002a738     LIBCMT:nlsdata.obj
 0002:00002750       ??_C@_08JCCMCCIL@HH?3mm?3ss?$AA@ 000000018002a750     LIBCMT:nlsdata.obj
 0002:00002760       ??_C@_17MBGCMIPB@?$AAS?$AAu?$AAn?$AA?$AA@ 000000018002a760     LIBCMT:nlsdata.obj
 0002:00002768       ??_C@_17KBOMKBF@?$AAM?$AAo?$AAn?$AA?$AA@ 000000018002a768     LIBCMT:nlsdata.obj
 0002:00002770       ??_C@_17BMKGEGOJ@?$AAT?$AAu?$AAe?$AA?$AA@ 000000018002a770     LIBCMT:nlsdata.obj
 0002:00002778       ??_C@_17CJEDCEPE@?$AAW?$AAe?$AAd?$AA?$AA@ 000000018002a778     LIBCMT:nlsdata.obj
 0002:00002780       ??_C@_17PDPHAADD@?$AAT?$AAh?$AAu?$AA?$AA@ 000000018002a780     LIBCMT:nlsdata.obj
 0002:00002788       ??_C@_17HFOLPPLP@?$AAF?$AAr?$AAi?$AA?$AA@ 000000018002a788     LIBCMT:nlsdata.obj
 0002:00002790       ??_C@_17GGIBDPIH@?$AAS?$AAa?$AAt?$AA?$AA@ 000000018002a790     LIBCMT:nlsdata.obj
 0002:00002798       ??_C@_1O@IHNHDHPB@?$AAS?$AAu?$AAn?$AAd?$AAa?$AAy?$AA?$AA@ 000000018002a798     LIBCMT:nlsdata.obj
 0002:000027a8       ??_C@_1O@MMNBFLIA@?$AAM?$AAo?$AAn?$AAd?$AAa?$AAy?$AA?$AA@ 000000018002a7a8     LIBCMT:nlsdata.obj
 0002:000027b8       ??_C@_1BA@ENFBFFEK@?$AAT?$AAu?$AAe?$AAs?$AAd?$AAa?$AAy?$AA?$AA@ 000000018002a7b8     LIBCMT:nlsdata.obj
 0002:000027c8       ??_C@_1BE@EBOGMDOH@?$AAW?$AAe?$AAd?$AAn?$AAe?$AAs?$AAd?$AAa?$AAy?$AA?$AA@ 000000018002a7c8     LIBCMT:nlsdata.obj
 0002:000027e0       ??_C@_1BC@HHMNLIHE@?$AAT?$AAh?$AAu?$AAr?$AAs?$AAd?$AAa?$AAy?$AA?$AA@ 000000018002a7e0     LIBCMT:nlsdata.obj
 0002:000027f8       ??_C@_1O@PDICJHAG@?$AAF?$AAr?$AAi?$AAd?$AAa?$AAy?$AA?$AA@ 000000018002a7f8     LIBCMT:nlsdata.obj
 0002:00002808       ??_C@_1BC@ENMNNPAJ@?$AAS?$AAa?$AAt?$AAu?$AAr?$AAd?$AAa?$AAy?$AA?$AA@ 000000018002a808     LIBCMT:nlsdata.obj
 0002:00002820       ??_C@_17DKNBKCHM@?$AAJ?$AAa?$AAn?$AA?$AA@ 000000018002a820     LIBCMT:nlsdata.obj
 0002:00002828       ??_C@_17LMDJEKJN@?$AAF?$AAe?$AAb?$AA?$AA@ 000000018002a828     LIBCMT:nlsdata.obj
 0002:00002830       ??_C@_17CKNLEDEC@?$AAM?$AAa?$AAr?$AA?$AA@ 000000018002a830     LIBCMT:nlsdata.obj
 0002:00002838       ??_C@_17LFPOIHDD@?$AAA?$AAp?$AAr?$AA?$AA@ 000000018002a838     LIBCMT:nlsdata.obj
 0002:00002840       ??_C@_17PNNKMEED@?$AAM?$AAa?$AAy?$AA?$AA@ 000000018002a840     LIBCMT:nlsdata.obj
 0002:00002848       ??_C@_17KCJGOCPB@?$AAJ?$AAu?$AAn?$AA?$AA@ 000000018002a848     LIBCMT:nlsdata.obj
 0002:00002850       ??_C@_17IJPCKHK@?$AAJ?$AAu?$AAl?$AA?$AA@ 000000018002a850     LIBCMT:nlsdata.obj
 0002:00002858       ??_C@_17ICPELBCN@?$AAA?$AAu?$AAg?$AA?$AA@ 000000018002a858     LIBCMT:nlsdata.obj
 0002:00002860       ??_C@_17HCHCOKMG@?$AAS?$AAe?$AAp?$AA?$AA@ 000000018002a860     LIBCMT:nlsdata.obj
 0002:00002868       ??_C@_17FNLKOI@?$AAO?$AAc?$AAt?$AA?$AA@ 000000018002a868     LIBCMT:nlsdata.obj
 0002:00002870       ??_C@_17BBDMLCIG@?$AAN?$AAo?$AAv?$AA?$AA@ 000000018002a870     LIBCMT:nlsdata.obj
 0002:00002878       ??_C@_17EGKACKIF@?$AAD?$AAe?$AAc?$AA?$AA@ 000000018002a878     LIBCMT:nlsdata.obj
 0002:00002880       ??_C@_1BA@EFMEIEBA@?$AAJ?$AAa?$AAn?$AAu?$AAa?$AAr?$AAy?$AA?$AA@ 000000018002a880     LIBCMT:nlsdata.obj
 0002:00002890       ??_C@_1BC@JGDDFFAM@?$AAF?$AAe?$AAb?$AAr?$AAu?$AAa?$AAr?$AAy?$AA?$AA@ 000000018002a890     LIBCMT:nlsdata.obj
 0002:000028a8       ??_C@_1M@IKEENEDF@?$AAM?$AAa?$AAr?$AAc?$AAh?$AA?$AA@ 000000018002a8a8     LIBCMT:nlsdata.obj
 0002:000028b8       ??_C@_1M@GJNLMHFD@?$AAA?$AAp?$AAr?$AAi?$AAl?$AA?$AA@ 000000018002a8b8     LIBCMT:nlsdata.obj
 0002:000028c8       ??_C@_19EPFLPGAP@?$AAJ?$AAu?$AAn?$AAe?$AA?$AA@ 000000018002a8c8     LIBCMT:nlsdata.obj
 0002:000028d8       ??_C@_19BIFMLPCD@?$AAJ?$AAu?$AAl?$AAy?$AA?$AA@ 000000018002a8d8     LIBCMT:nlsdata.obj
 0002:000028e8       ??_C@_1O@PAHLKOAC@?$AAA?$AAu?$AAg?$AAu?$AAs?$AAt?$AA?$AA@ 000000018002a8e8     LIBCMT:nlsdata.obj
 0002:000028f8       ??_C@_1BE@DKAAMBJL@?$AAS?$AAe?$AAp?$AAt?$AAe?$AAm?$AAb?$AAe?$AAr?$AA?$AA@ 000000018002a8f8     LIBCMT:nlsdata.obj
 0002:00002910       ??_C@_1BA@EPANDLNG@?$AAO?$AAc?$AAt?$AAo?$AAb?$AAe?$AAr?$AA?$AA@ 000000018002a910     LIBCMT:nlsdata.obj
 0002:00002920       ??_C@_1BC@BGLIFPF@?$AAN?$AAo?$AAv?$AAe?$AAm?$AAb?$AAe?$AAr?$AA?$AA@ 000000018002a920     LIBCMT:nlsdata.obj
 0002:00002938       ??_C@_1BC@FEMKIFH@?$AAD?$AAe?$AAc?$AAe?$AAm?$AAb?$AAe?$AAr?$AA?$AA@ 000000018002a938     LIBCMT:nlsdata.obj
 0002:0000294c       ??_C@_15ODEHAHHF@?$AAA?$AAM?$AA?$AA@ 000000018002a94c     LIBCMT:nlsdata.obj
 0002:00002954       ??_C@_15CLMNNGEL@?$AAP?$AAM?$AA?$AA@ 000000018002a954     LIBCMT:nlsdata.obj
 0002:00002960       ??_C@_1BC@IEBCMHCM@?$AAM?$AAM?$AA?1?$AAd?$AAd?$AA?1?$AAy?$AAy?$AA?$AA@ 000000018002a960     LIBCMT:nlsdata.obj
 0002:00002978       ??_C@_1CI@KNAKOEBC@?$AAd?$AAd?$AAd?$AAd?$AA?0?$AA?5?$AAM?$AAM?$AAM?$AAM?$AA?5?$AAd?$AAd?$AA?0?$AA?5?$AAy?$AAy?$AAy?$AAy?$AA?$AA@ 000000018002a978     LIBCMT:nlsdata.obj
 0002:000029a0       ??_C@_1BC@GDGBMEMK@?$AAH?$AAH?$AA?3?$AAm?$AAm?$AA?3?$AAs?$AAs?$AA?$AA@ 000000018002a9a0     LIBCMT:nlsdata.obj
 0002:000029b8       ??_C@_1M@BMHNFIME@?$AAe?$AAn?$AA?9?$AAU?$AAS?$AA?$AA@ 000000018002a9b8     LIBCMT:nlsdata.obj
 0002:00002a50       _XcptActTab                000000018002aa50     LIBCMT:winxfltr.obj
 0002:00002b10       _XcptActTabCount           000000018002ab10     LIBCMT:winxfltr.obj
 0002:00002b14       _XcptActTabSize            000000018002ab14     LIBCMT:winxfltr.obj
 0002:00002b18       _First_FPE_Indx            000000018002ab18     LIBCMT:winxfltr.obj
 0002:00002b1c       _Num_FPE                   000000018002ab1c     LIBCMT:winxfltr.obj
 0002:00002b20       ??_C@_1BK@MGMFAEKH@?$AAk?$AAe?$AAr?$AAn?$AAe?$AAl?$AA3?$AA2?$AA?4?$AAd?$AAl?$AAl?$AA?$AA@ 000000018002ab20     LIBCMT:winapisupp.obj
 0002:00002b40       ??_C@_08KNHFBNJ@FlsAlloc?$AA@ 000000018002ab40     LIBCMT:winapisupp.obj
 0002:00002b50       ??_C@_07PEJMOBNF@FlsFree?$AA@ 000000018002ab50     LIBCMT:winapisupp.obj
 0002:00002b58       ??_C@_0M@GDNOONDI@FlsGetValue?$AA@ 000000018002ab58     LIBCMT:winapisupp.obj
 0002:00002b68       ??_C@_0M@JCPCPOEF@FlsSetValue?$AA@ 000000018002ab68     LIBCMT:winapisupp.obj
 0002:00002b78       ??_C@_0BM@HCFOFFN@InitializeCriticalSectionEx?$AA@ 000000018002ab78     LIBCMT:winapisupp.obj
 0002:00002b98       ??_C@_0P@DLHPPCNH@CreateEventExW?$AA@ 000000018002ab98     LIBCMT:winapisupp.obj
 0002:00002ba8       ??_C@_0BD@KIEEOEEH@CreateSemaphoreExW?$AA@ 000000018002aba8     LIBCMT:winapisupp.obj
 0002:00002bc0       ??_C@_0BI@BKLFFAPO@SetThreadStackGuarantee?$AA@ 000000018002abc0     LIBCMT:winapisupp.obj
 0002:00002bd8       ??_C@_0BG@OGFAJCKC@CreateThreadpoolTimer?$AA@ 000000018002abd8     LIBCMT:winapisupp.obj
 0002:00002bf0       ??_C@_0BD@LPLEMMDI@SetThreadpoolTimer?$AA@ 000000018002abf0     LIBCMT:winapisupp.obj
 0002:00002c08       ??_C@_0CA@FMNJENH@WaitForThreadpoolTimerCallbacks?$AA@ 000000018002ac08     LIBCMT:winapisupp.obj
 0002:00002c28       ??_C@_0BF@DCFCCNOC@CloseThreadpoolTimer?$AA@ 000000018002ac28     LIBCMT:winapisupp.obj
 0002:00002c40       ??_C@_0BF@FLABGKKM@CreateThreadpoolWait?$AA@ 000000018002ac40     LIBCMT:winapisupp.obj
 0002:00002c58       ??_C@_0BC@MGCOHNA@SetThreadpoolWait?$AA@ 000000018002ac58     LIBCMT:winapisupp.obj
 0002:00002c70       ??_C@_0BE@OCIOMIMP@CloseThreadpoolWait?$AA@ 000000018002ac70     LIBCMT:winapisupp.obj
 0002:00002c88       ??_C@_0BJ@LKGHFHBO@FlushProcessWriteBuffers?$AA@ 000000018002ac88     LIBCMT:winapisupp.obj
 0002:00002ca8       ??_C@_0BP@KALKKPMO@FreeLibraryWhenCallbackReturns?$AA@ 000000018002aca8     LIBCMT:winapisupp.obj
 0002:00002cc8       ??_C@_0BK@DFNBACLA@GetCurrentProcessorNumber?$AA@ 000000018002acc8     LIBCMT:winapisupp.obj
 0002:00002ce8       ??_C@_0BP@KHGALBC@GetLogicalProcessorInformation?$AA@ 000000018002ace8     LIBCMT:winapisupp.obj
 0002:00002d08       ??_C@_0BE@FKKLLFLM@CreateSymbolicLinkW?$AA@ 000000018002ad08     LIBCMT:winapisupp.obj
 0002:00002d20       ??_C@_0BJ@OHNKDLIJ@SetDefaultDllDirectories?$AA@ 000000018002ad20     LIBCMT:winapisupp.obj
 0002:00002d40       ??_C@_0BE@LJANKFHF@EnumSystemLocalesEx?$AA@ 000000018002ad40     LIBCMT:winapisupp.obj
 0002:00002d58       ??_C@_0BA@IHGNDAEB@CompareStringEx?$AA@ 000000018002ad58     LIBCMT:winapisupp.obj
 0002:00002d68       ??_C@_0BA@EPCJIIPD@GetDateFormatEx?$AA@ 000000018002ad68     LIBCMT:winapisupp.obj
 0002:00002d78       ??_C@_0BA@ONOKGCMP@GetLocaleInfoEx?$AA@ 000000018002ad78     LIBCMT:winapisupp.obj
 0002:00002d88       ??_C@_0BA@CIJJKCJJ@GetTimeFormatEx?$AA@ 000000018002ad88     LIBCMT:winapisupp.obj
 0002:00002d98       ??_C@_0BJ@PBCCBIPI@GetUserDefaultLocaleName?$AA@ 000000018002ad98     LIBCMT:winapisupp.obj
 0002:00002db8       ??_C@_0BC@CELBKLLA@IsValidLocaleName?$AA@ 000000018002adb8     LIBCMT:winapisupp.obj
 0002:00002dd0       ??_C@_0O@KKBNKAPF@LCMapStringEx?$AA@ 000000018002add0     LIBCMT:winapisupp.obj
 0002:00002de0       ??_C@_0BE@JOGNEJCI@GetCurrentPackageId?$AA@ 000000018002ade0     LIBCMT:winapisupp.obj
 0002:00002df8       ??_C@_0P@CDHHOHKP@GetTickCount64?$AA@ 000000018002adf8     LIBCMT:winapisupp.obj
 0002:00002e08       ??_C@_0BO@KPCLFDJJ@GetFileInformationByHandleExW?$AA@ 000000018002ae08     LIBCMT:winapisupp.obj
 0002:00002e28       ??_C@_0BM@MHIDLABK@SetFileInformationByHandleW?$AA@ 000000018002ae28     LIBCMT:winapisupp.obj
 0002:00002e48       _pDestructExceptionObject  000000018002ae48     LIBCMT:frame.obj
 0002:00002e50       ??_C@_05KLBDPFGC@e?$CL000?$AA@ 000000018002ae50     LIBCMT:cvt.obj
 0002:00002e58       __real@0000000000000000    000000018002ae58     LIBCMT:cvt.obj
 0002:00002e60       LcidToLocaleNameTable      000000018002ae60     LIBCMT:winapinls.obj
 0002:00003ca0       LocaleNameToIndexTable     000000018002bca0     LIBCMT:winapinls.obj
 0002:00004ae0       ??_C@_15EMKDOKLE@?$AAa?$AAr?$AA?$AA@ 000000018002cae0     LIBCMT:winapinls.obj
 0002:00004ae8       ??_C@_15KNPADPLH@?$AAb?$AAg?$AA?$AA@ 000000018002cae8     LIBCMT:winapinls.obj
 0002:00004af0       ??_C@_15EDMHLDMO@?$AAc?$AAa?$AA?$AA@ 000000018002caf0     LIBCMT:winapinls.obj
 0002:00004af8       ??_C@_1O@BPEAJADD@?$AAz?$AAh?$AA?9?$AAC?$AAH?$AAS?$AA?$AA@ 000000018002caf8     LIBCMT:winapinls.obj
 0002:00004b08       ??_C@_15LJNHCMNK@?$AAc?$AAs?$AA?$AA@ 000000018002cb08     LIBCMT:winapinls.obj
 0002:00004b10       ??_C@_15FOMCIDHG@?$AAd?$AAa?$AA?$AA@ 000000018002cb10     LIBCMT:winapinls.obj
 0002:00004b18       ??_C@_15NBKABECB@?$AAd?$AAe?$AA?$AA@ 000000018002cb18     LIBCMT:winapinls.obj
 0002:00004b20       ??_C@_15GHPEIIAO@?$AAe?$AAl?$AA?$AA@ 000000018002cb20     LIBCMT:winapinls.obj
 0002:00004b28       ??_C@_15MNPNEAIF@?$AAe?$AAn?$AA?$AA@ 000000018002cb28     LIBCMT:winapinls.obj
 0002:00004b30       ??_C@_15GPIOMPMH@?$AAe?$AAs?$AA?$AA@ 000000018002cb30     LIBCMT:winapinls.obj
 0002:00004b38       ??_C@_15NGLOAKJC@?$AAf?$AAi?$AA?$AA@ 000000018002cb38     LIBCMT:winapinls.obj
 0002:00004b40       ??_C@_15FBKGNKAM@?$AAf?$AAr?$AA?$AA@ 000000018002cb40     LIBCMT:winapinls.obj
 0002:00004b48       ??_C@_15KGGCNEFK@?$AAh?$AAe?$AA?$AA@ 000000018002cb48     LIBCMT:winapinls.obj
 0002:00004b50       ??_C@_15PGHLIDMF@?$AAh?$AAu?$AA?$AA@ 000000018002cb50     LIBCMT:winapinls.obj
 0002:00004b58       ??_C@_15BIEMAPLM@?$AAi?$AAs?$AA?$AA@ 000000018002cb58     LIBCMT:winapinls.obj
 0002:00004b60       ??_C@_15IFJLDHAF@?$AAi?$AAt?$AA?$AA@ 000000018002cb60     LIBCMT:winapinls.obj
 0002:00004b68       ??_C@_15GEMIOCAG@?$AAj?$AAa?$AA?$AA@ 000000018002cb68     LIBCMT:winapinls.obj
 0002:00004b70       ??_C@_15EPELEGJA@?$AAk?$AAo?$AA?$AA@ 000000018002cb70     LIBCMT:winapinls.obj
 0002:00004b78       ??_C@_15NDDHIMN@?$AAn?$AAl?$AA?$AA@ 000000018002cb78     LIBCMT:winapinls.obj
 0002:00004b80       ??_C@_15BPIGNHCD@?$AAn?$AAo?$AA?$AA@ 000000018002cb80     LIBCMT:winapinls.obj
 0002:00004b88       ??_C@_15DEOPBLCG@?$AAp?$AAl?$AA?$AA@ 000000018002cb88     LIBCMT:winapinls.obj
 0002:00004b90       ??_C@_15KBECGEFG@?$AAp?$AAt?$AA?$AA@ 000000018002cb90     LIBCMT:winapinls.obj
 0002:00004b98       ??_C@_15GLJCBFMD@?$AAr?$AAo?$AA?$AA@ 000000018002cb98     LIBCMT:winapinls.obj
 0002:00004ba0       ??_C@_15FEDGKCDI@?$AAr?$AAu?$AA?$AA@ 000000018002cba0     LIBCMT:winapinls.obj
 0002:00004ba8       ??_C@_15GLKMLLHM@?$AAh?$AAr?$AA?$AA@ 000000018002cba8     LIBCMT:winapinls.obj
 0002:00004bb0       ??_C@_15CPKMFBDB@?$AAs?$AAk?$AA?$AA@ 000000018002cbb0     LIBCMT:winapinls.obj
 0002:00004bb8       ??_C@_15BAAIOGMK@?$AAs?$AAq?$AA?$AA@ 000000018002cbb8     LIBCMT:winapinls.obj
 0002:00004bc0       ??_C@_15INNPNOHD@?$AAs?$AAv?$AA?$AA@ 000000018002cbc0     LIBCMT:winapinls.obj
 0002:00004bc8       ??_C@_15CABMMOGH@?$AAt?$AAh?$AA?$AA@ 000000018002cbc8     LIBCMT:winapinls.obj
 0002:00004bd0       ??_C@_15BPLIHJJM@?$AAt?$AAr?$AA?$AA@ 000000018002cbd0     LIBCMT:winapinls.obj
 0002:00004bd8       ??_C@_15NEOEKKDJ@?$AAu?$AAr?$AA?$AA@ 000000018002cbd8     LIBCMT:winapinls.obj
 0002:00004be0       ??_C@_15NFICGAJK@?$AAi?$AAd?$AA?$AA@ 000000018002cbe0     LIBCMT:winapinls.obj
 0002:00004be8       ??_C@_15PJPFLCCM@?$AAu?$AAk?$AA?$AA@ 000000018002cbe8     LIBCMT:winapinls.obj
 0002:00004bf0       ??_C@_15HPJPHDM@?$AAb?$AAe?$AA?$AA@ 000000018002cbf0     LIBCMT:winapinls.obj
 0002:00004bf8       ??_C@_15LCHLGJII@?$AAs?$AAl?$AA?$AA@ 000000018002cbf8     LIBCMT:winapinls.obj
 0002:00004c00       ??_C@_15PCFJPHHO@?$AAe?$AAt?$AA?$AA@ 000000018002cc00     LIBCMT:winapinls.obj
 0002:00004c08       ??_C@_15HPFPGODN@?$AAl?$AAv?$AA?$AA@ 000000018002cc08     LIBCMT:winapinls.obj
 0002:00004c10       ??_C@_15NFFGKGLG@?$AAl?$AAt?$AA?$AA@ 000000018002cc10     LIBCMT:winapinls.obj
 0002:00004c18       ??_C@_15BDAKCCHN@?$AAf?$AAa?$AA?$AA@ 000000018002cc18     LIBCMT:winapinls.obj
 0002:00004c20       ??_C@_15NFGIAIAJ@?$AAv?$AAi?$AA?$AA@ 000000018002cc20     LIBCMT:winapinls.obj
 0002:00004c28       ??_C@_15LMKNDMHN@?$AAh?$AAy?$AA?$AA@ 000000018002cc28     LIBCMT:winapinls.obj
 0002:00004c30       ??_C@_15IJBHMCFL@?$AAa?$AAz?$AA?$AA@ 000000018002cc30     LIBCMT:winapinls.obj
 0002:00004c38       ??_C@_15EKOFJABL@?$AAe?$AAu?$AA?$AA@ 000000018002cc38     LIBCMT:winapinls.obj
 0002:00004c40       ??_C@_15BGHADCNK@?$AAm?$AAk?$AA?$AA@ 000000018002cc40     LIBCMT:winapinls.obj
 0002:00004c48       ??_C@_15JDNICKHM@?$AAa?$AAf?$AA?$AA@ 000000018002cc48     LIBCMT:winapinls.obj
 0002:00004c50       ??_C@_15KPJEDBKD@?$AAk?$AAa?$AA?$AA@ 000000018002cc50     LIBCMT:winapinls.obj
 0002:00004c58       ??_C@_15PDNFFFEO@?$AAf?$AAo?$AA?$AA@ 000000018002cc58     LIBCMT:winapinls.obj
 0002:00004c60       ??_C@_15OMLEGLOC@?$AAh?$AAi?$AA?$AA@ 000000018002cc60     LIBCMT:winapinls.obj
 0002:00004c68       ??_C@_15IDNNENKK@?$AAm?$AAs?$AA?$AA@ 000000018002cc68     LIBCMT:winapinls.obj
 0002:00004c70       ??_C@_15MACJNBMH@?$AAk?$AAk?$AA?$AA@ 000000018002cc70     LIBCMT:winapinls.obj
 0002:00004c78       ??_C@_15DKDJEOND@?$AAk?$AAy?$AA?$AA@ 000000018002cc78     LIBCMT:winapinls.obj
 0002:00004c80       ??_C@_15DFGDLJBG@?$AAs?$AAw?$AA?$AA@ 000000018002cc80     LIBCMT:winapinls.obj
 0002:00004c88       ??_C@_15BBFAICNG@?$AAu?$AAz?$AA?$AA@ 000000018002cc88     LIBCMT:winapinls.obj
 0002:00004c90       ??_C@_15DKNDCGEA@?$AAt?$AAt?$AA?$AA@ 000000018002cc90     LIBCMT:winapinls.obj
 0002:00004c98       ??_C@_15MGIFMDPL@?$AAp?$AAa?$AA?$AA@ 000000018002cc98     LIBCMT:winapinls.obj
 0002:00004ca0       ??_C@_15HCNDBBA@?$AAg?$AAu?$AA?$AA@ 000000018002cca0     LIBCMT:winapinls.obj
 0002:00004ca8       ??_C@_15FNBEIBON@?$AAt?$AAa?$AA?$AA@ 000000018002cca8     LIBCMT:winapinls.obj
 0002:00004cb0       ??_C@_15NCHGBGLK@?$AAt?$AAe?$AA?$AA@ 000000018002ccb0     LIBCMT:winapinls.obj
 0002:00004cb8       ??_C@_15PHPHCBPF@?$AAk?$AAn?$AA?$AA@ 000000018002ccb8     LIBCMT:winapinls.obj
 0002:00004cc0       ??_C@_15DLGBCKMP@?$AAm?$AAr?$AA?$AA@ 000000018002ccc0     LIBCMT:winapinls.obj
 0002:00004cc8       ??_C@_15EABBLBFF@?$AAs?$AAa?$AA?$AA@ 000000018002ccc8     LIBCMT:winapinls.obj
 0002:00004cd0       ??_C@_15CBKOMCOI@?$AAm?$AAn?$AA?$AA@ 000000018002ccd0     LIBCMT:winapinls.obj
 0002:00004cd8       ??_C@_15CKDMCJAF@?$AAg?$AAl?$AA?$AA@ 000000018002ccd8     LIBCMT:winapinls.obj
 0002:00004ce0       ??_C@_17CNJFBPG@?$AAk?$AAo?$AAk?$AA?$AA@ 000000018002cce0     LIBCMT:winapinls.obj
 0002:00004ce8       ??_C@_17FFBJICPL@?$AAs?$AAy?$AAr?$AA?$AA@ 000000018002cce8     LIBCMT:winapinls.obj
 0002:00004cf0       ??_C@_17KPNDCPAF@?$AAd?$AAi?$AAv?$AA?$AA@ 000000018002ccf0     LIBCMT:winapinls.obj
 0002:00004cf8       ??_C@_11LOCGONAA@?$AA?$AA@ 000000018002ccf8     LIBCMT:winapinls.obj
 0002:00004d00       ??_C@_1M@OKAHONE@?$AAa?$AAr?$AA?9?$AAS?$AAA?$AA?$AA@ 000000018002cd00     LIBCMT:winapinls.obj
 0002:00004d10       ??_C@_1M@FFFIGIGK@?$AAb?$AAg?$AA?9?$AAB?$AAG?$AA?$AA@ 000000018002cd10     LIBCMT:winapinls.obj
 0002:00004d20       ??_C@_1M@BJNKEDC@?$AAc?$AAa?$AA?9?$AAE?$AAS?$AA?$AA@ 000000018002cd20     LIBCMT:winapinls.obj
 0002:00004d30       ??_C@_1M@IJJHFJHA@?$AAc?$AAs?$AA?9?$AAC?$AAZ?$AA?$AA@ 000000018002cd30     LIBCMT:winapinls.obj
 0002:00004d40       ??_C@_1M@CLPEOBGI@?$AAd?$AAa?$AA?9?$AAD?$AAK?$AA?$AA@ 000000018002cd40     LIBCMT:winapinls.obj
 0002:00004d50       ??_C@_1M@MCMADGCB@?$AAd?$AAe?$AA?9?$AAD?$AAE?$AA?$AA@ 000000018002cd50     LIBCMT:winapinls.obj
 0002:00004d60       ??_C@_1M@OOCKEMAM@?$AAe?$AAl?$AA?9?$AAG?$AAR?$AA?$AA@ 000000018002cd60     LIBCMT:winapinls.obj
 0002:00004d70       ??_C@_1M@DDNJFGID@?$AAf?$AAi?$AA?9?$AAF?$AAI?$AA?$AA@ 000000018002cd70     LIBCMT:winapinls.obj
 0002:00004d80       ??_C@_1M@GLIPPMAC@?$AAf?$AAr?$AA?9?$AAF?$AAR?$AA?$AA@ 000000018002cd80     LIBCMT:winapinls.obj
 0002:00004d90       ??_C@_1M@GFMCHPE@?$AAh?$AAe?$AA?9?$AAI?$AAL?$AA?$AA@ 000000018002cd90     LIBCMT:winapinls.obj
 0002:00004da0       ??_C@_1M@MHLPGNKM@?$AAh?$AAu?$AA?9?$AAH?$AAU?$AA?$AA@ 000000018002cda0     LIBCMT:winapinls.obj
 0002:00004db0       ??_C@_1M@LPDDNNPN@?$AAi?$AAs?$AA?9?$AAI?$AAS?$AA?$AA@ 000000018002cdb0     LIBCMT:winapinls.obj
 0002:00004dc0       ??_C@_1M@MADIPODN@?$AAi?$AAt?$AA?9?$AAI?$AAT?$AA?$AA@ 000000018002cdc0     LIBCMT:winapinls.obj
 0002:00004dd0       ??_C@_1M@IHBJJGG@?$AAn?$AAl?$AA?9?$AAN?$AAL?$AA?$AA@ 000000018002cdd0     LIBCMT:winapinls.obj
 0002:00004de0       ??_C@_1M@EANAGDL@?$AAn?$AAb?$AA?9?$AAN?$AAO?$AA?$AA@ 000000018002cde0     LIBCMT:winapinls.obj
 0002:00004df0       ??_C@_1M@NEIEMEGP@?$AAp?$AAl?$AA?9?$AAP?$AAL?$AA?$AA@ 000000018002cdf0     LIBCMT:winapinls.obj
 0002:00004e00       ??_C@_1M@BOCFIGEP@?$AAp?$AAt?$AA?9?$AAB?$AAR?$AA?$AA@ 000000018002ce00     LIBCMT:winapinls.obj
 0002:00004e10       ??_C@_1M@IMPFOPBG@?$AAr?$AAo?$AA?9?$AAR?$AAO?$AA?$AA@ 000000018002ce10     LIBCMT:winapinls.obj
 0002:00004e20       ??_C@_1M@IDNNEJMM@?$AAr?$AAu?$AA?9?$AAR?$AAU?$AA?$AA@ 000000018002ce20     LIBCMT:winapinls.obj
 0002:00004e30       ??_C@_1M@LILEEOGM@?$AAh?$AAr?$AA?9?$AAH?$AAR?$AA?$AA@ 000000018002ce30     LIBCMT:winapinls.obj
 0002:00004e40       ??_C@_1M@FKIFEHPB@?$AAs?$AAk?$AA?9?$AAS?$AAK?$AA?$AA@ 000000018002ce40     LIBCMT:winapinls.obj
 0002:00004e50       ??_C@_1M@LJMAMNPJ@?$AAs?$AAq?$AA?9?$AAA?$AAL?$AA?$AA@ 000000018002ce50     LIBCMT:winapinls.obj
 0002:00004e60       ??_C@_1M@GIAKDKJK@?$AAs?$AAv?$AA?9?$AAS?$AAE?$AA?$AA@ 000000018002ce60     LIBCMT:winapinls.obj
 0002:00004e70       ??_C@_1M@MKJKIKCL@?$AAt?$AAh?$AA?9?$AAT?$AAH?$AA?$AA@ 000000018002ce70     LIBCMT:winapinls.obj
 0002:00004e80       ??_C@_1M@MFLCCMPB@?$AAt?$AAr?$AA?9?$AAT?$AAR?$AA?$AA@ 000000018002ce80     LIBCMT:winapinls.obj
 0002:00004e90       ??_C@_1M@OIJHDKJN@?$AAu?$AAr?$AA?9?$AAP?$AAK?$AA?$AA@ 000000018002ce90     LIBCMT:winapinls.obj
 0002:00004ea0       ??_C@_1M@LHIPCIEK@?$AAi?$AAd?$AA?9?$AAI?$AAD?$AA?$AA@ 000000018002cea0     LIBCMT:winapinls.obj
 0002:00004eb0       ??_C@_1M@MFMOBGI@?$AAu?$AAk?$AA?9?$AAU?$AAA?$AA?$AA@ 000000018002ceb0     LIBCMT:winapinls.obj
 0002:00004ec0       ??_C@_1M@OBGLJIPL@?$AAb?$AAe?$AA?9?$AAB?$AAY?$AA?$AA@ 000000018002cec0     LIBCMT:winapinls.obj
 0002:00004ed0       ??_C@_1M@BCFAJEAD@?$AAs?$AAl?$AA?9?$AAS?$AAI?$AA?$AA@ 000000018002ced0     LIBCMT:winapinls.obj
 0002:00004ee0       ??_C@_1M@FKFFEDDN@?$AAe?$AAt?$AA?9?$AAE?$AAE?$AA?$AA@ 000000018002cee0     LIBCMT:winapinls.obj
 0002:00004ef0       ??_C@_1M@KGKKAACI@?$AAl?$AAv?$AA?9?$AAL?$AAV?$AA?$AA@ 000000018002cef0     LIBCMT:winapinls.obj
 0002:00004f00       ??_C@_1M@IFGBIJO@?$AAl?$AAt?$AA?9?$AAL?$AAT?$AA?$AA@ 000000018002cf00     LIBCMT:winapinls.obj
 0002:00004f10       ??_C@_1M@FGEAHEDM@?$AAf?$AAa?$AA?9?$AAI?$AAR?$AA?$AA@ 000000018002cf10     LIBCMT:winapinls.obj
 0002:00004f20       ??_C@_1M@KBMAIBFN@?$AAv?$AAi?$AA?9?$AAV?$AAN?$AA?$AA@ 000000018002cf20     LIBCMT:winapinls.obj
 0002:00004f30       ??_C@_1M@GPCBKDJK@?$AAh?$AAy?$AA?9?$AAA?$AAM?$AA?$AA@ 000000018002cf30     LIBCMT:winapinls.obj
 0002:00004f40       ??_C@_1BG@BECMDDJB@?$AAa?$AAz?$AA?9?$AAA?$AAZ?$AA?9?$AAL?$AAa?$AAt?$AAn?$AA?$AA@ 000000018002cf40     LIBCMT:winapinls.obj
 0002:00004f58       ??_C@_1M@MAOFCAEA@?$AAe?$AAu?$AA?9?$AAE?$AAS?$AA?$AA@ 000000018002cf58     LIBCMT:winapinls.obj
 0002:00004f68       ??_C@_1M@IGHABKPI@?$AAm?$AAk?$AA?9?$AAM?$AAK?$AA?$AA@ 000000018002cf68     LIBCMT:winapinls.obj
 0002:00004f78       ??_C@_1M@IAIGNEJG@?$AAt?$AAn?$AA?9?$AAZ?$AAA?$AA?$AA@ 000000018002cf78     LIBCMT:winapinls.obj
 0002:00004f88       ??_C@_1M@IIJCOJFA@?$AAx?$AAh?$AA?9?$AAZ?$AAA?$AA?$AA@ 000000018002cf88     LIBCMT:winapinls.obj
 0002:00004f98       ??_C@_1M@LGPJHNJH@?$AAz?$AAu?$AA?9?$AAZ?$AAA?$AA?$AA@ 000000018002cf98     LIBCMT:winapinls.obj
 0002:00004fa8       ??_C@_1M@HOKAOIO@?$AAa?$AAf?$AA?9?$AAZ?$AAA?$AA?$AA@ 000000018002cfa8     LIBCMT:winapinls.obj
 0002:00004fb8       ??_C@_1M@DPCLHLIE@?$AAk?$AAa?$AA?9?$AAG?$AAE?$AA?$AA@ 000000018002cfb8     LIBCMT:winapinls.obj
 0002:00004fc8       ??_C@_1M@BLKMHJBI@?$AAf?$AAo?$AA?9?$AAF?$AAO?$AA?$AA@ 000000018002cfc8     LIBCMT:winapinls.obj
 0002:00004fd8       ??_C@_1M@LGGJAPPB@?$AAh?$AAi?$AA?9?$AAI?$AAN?$AA?$AA@ 000000018002cfd8     LIBCMT:winapinls.obj
 0002:00004fe8       ??_C@_1M@FIKPIHFE@?$AAm?$AAt?$AA?9?$AAM?$AAT?$AA?$AA@ 000000018002cfe8     LIBCMT:winapinls.obj
 0002:00004ff8       ??_C@_1M@HEGGPBFA@?$AAs?$AAe?$AA?9?$AAN?$AAO?$AA?$AA@ 000000018002cff8     LIBCMT:winapinls.obj
 0002:00005008       ??_C@_1M@EIBJEEPA@?$AAm?$AAs?$AA?9?$AAM?$AAY?$AA?$AA@ 000000018002d008     LIBCMT:winapinls.obj
 0002:00005018       ??_C@_1M@FHLBGMPP@?$AAk?$AAk?$AA?9?$AAK?$AAZ?$AA?$AA@ 000000018002d018     LIBCMT:winapinls.obj
 0002:00005028       ??_C@_1M@NGJJLCGI@?$AAk?$AAy?$AA?9?$AAK?$AAG?$AA?$AA@ 000000018002d028     LIBCMT:winapinls.obj
 0002:00005038       ??_C@_1M@GIENNBFC@?$AAs?$AAw?$AA?9?$AAK?$AAE?$AA?$AA@ 000000018002d038     LIBCMT:winapinls.obj
 0002:00005048       ??_C@_1BG@NDGMJIMJ@?$AAu?$AAz?$AA?9?$AAU?$AAZ?$AA?9?$AAL?$AAa?$AAt?$AAn?$AA?$AA@ 000000018002d048     LIBCMT:winapinls.obj
 0002:00005060       ??_C@_1M@IDCCIHBC@?$AAt?$AAt?$AA?9?$AAR?$AAU?$AA?$AA@ 000000018002d060     LIBCMT:winapinls.obj
 0002:00005070       ??_C@_1M@LOICPMOJ@?$AAb?$AAn?$AA?9?$AAI?$AAN?$AA?$AA@ 000000018002d070     LIBCMT:winapinls.obj
 0002:00005080       ??_C@_1M@KPKKNEAH@?$AAp?$AAa?$AA?9?$AAI?$AAN?$AA?$AA@ 000000018002d080     LIBCMT:winapinls.obj
 0002:00005090       ??_C@_1M@PJGPPBOG@?$AAg?$AAu?$AA?9?$AAI?$AAN?$AA?$AA@ 000000018002d090     LIBCMT:winapinls.obj
 0002:000050a0       ??_C@_1M@KMKMOPHI@?$AAt?$AAa?$AA?9?$AAI?$AAN?$AA?$AA@ 000000018002d0a0     LIBCMT:winapinls.obj
 0002:000050b0       ??_C@_1M@KFEHEPAC@?$AAt?$AAe?$AA?9?$AAI?$AAN?$AA?$AA@ 000000018002d0b0     LIBCMT:winapinls.obj
 0002:000050c0       ??_C@_1M@CDCLMGHI@?$AAk?$AAn?$AA?9?$AAI?$AAN?$AA?$AA@ 000000018002d0c0     LIBCMT:winapinls.obj
 0002:000050d0       ??_C@_1M@MIODLDKF@?$AAm?$AAl?$AA?9?$AAI?$AAN?$AA?$AA@ 000000018002d0d0     LIBCMT:winapinls.obj
 0002:000050e0       ??_C@_1M@PBIEACPO@?$AAm?$AAr?$AA?9?$AAI?$AAN?$AA?$AA@ 000000018002d0e0     LIBCMT:winapinls.obj
 0002:000050f0       ??_C@_1M@NIDEAGPH@?$AAs?$AAa?$AA?9?$AAI?$AAN?$AA?$AA@ 000000018002d0f0     LIBCMT:winapinls.obj
 0002:00005100       ??_C@_1M@FHIHCBIO@?$AAm?$AAn?$AA?9?$AAM?$AAN?$AA?$AA@ 000000018002d100     LIBCMT:winapinls.obj
 0002:00005110       ??_C@_1M@JAIJPENP@?$AAc?$AAy?$AA?9?$AAG?$AAB?$AA?$AA@ 000000018002d110     LIBCMT:winapinls.obj
 0002:00005120       ??_C@_1M@PHGFBEPN@?$AAg?$AAl?$AA?9?$AAE?$AAS?$AA?$AA@ 000000018002d120     LIBCMT:winapinls.obj
 0002:00005130       ??_C@_1O@KPIPDNCP@?$AAk?$AAo?$AAk?$AA?9?$AAI?$AAN?$AA?$AA@ 000000018002d130     LIBCMT:winapinls.obj
 0002:00005140       ??_C@_1O@KNHJLDJA@?$AAs?$AAy?$AAr?$AA?9?$AAS?$AAY?$AA?$AA@ 000000018002d140     LIBCMT:winapinls.obj
 0002:00005150       ??_C@_1O@MKEKBLAH@?$AAd?$AAi?$AAv?$AA?9?$AAM?$AAV?$AA?$AA@ 000000018002d150     LIBCMT:winapinls.obj
 0002:00005160       ??_C@_1O@OHDCKDDF@?$AAq?$AAu?$AAz?$AA?9?$AAB?$AAO?$AA?$AA@ 000000018002d160     LIBCMT:winapinls.obj
 0002:00005170       ??_C@_1M@LEPJNLFD@?$AAn?$AAs?$AA?9?$AAZ?$AAA?$AA?$AA@ 000000018002d170     LIBCMT:winapinls.obj
 0002:00005180       ??_C@_1M@OMLEIIJB@?$AAm?$AAi?$AA?9?$AAN?$AAZ?$AA?$AA@ 000000018002d180     LIBCMT:winapinls.obj
 0002:00005190       ??_C@_1M@PMPEAILG@?$AAa?$AAr?$AA?9?$AAI?$AAQ?$AA?$AA@ 000000018002d190     LIBCMT:winapinls.obj
 0002:000051a0       ??_C@_1M@CNKPNOEE@?$AAd?$AAe?$AA?9?$AAC?$AAH?$AA?$AA@ 000000018002d1a0     LIBCMT:winapinls.obj
 0002:000051b0       ??_C@_1M@LKMGMLKO@?$AAe?$AAn?$AA?9?$AAG?$AAB?$AA?$AA@ 000000018002d1b0     LIBCMT:winapinls.obj
 0002:000051c0       ??_C@_1M@PGKJFFGL@?$AAe?$AAs?$AA?9?$AAM?$AAX?$AA?$AA@ 000000018002d1c0     LIBCMT:winapinls.obj
 0002:000051d0       ??_C@_1M@DNNANBDC@?$AAf?$AAr?$AA?9?$AAB?$AAE?$AA?$AA@ 000000018002d1d0     LIBCMT:winapinls.obj
 0002:000051e0       ??_C@_1M@HLGMDFHM@?$AAi?$AAt?$AA?9?$AAC?$AAH?$AA?$AA@ 000000018002d1e0     LIBCMT:winapinls.obj
 0002:000051f0       ??_C@_1M@CLLBGJH@?$AAn?$AAl?$AA?9?$AAB?$AAE?$AA?$AA@ 000000018002d1f0     LIBCMT:winapinls.obj
 0002:00005200       ??_C@_1M@BODBOGLF@?$AAn?$AAn?$AA?9?$AAN?$AAO?$AA?$AA@ 000000018002d200     LIBCMT:winapinls.obj
 0002:00005210       ??_C@_1M@HFFAHKAD@?$AAp?$AAt?$AA?9?$AAP?$AAT?$AA?$AA@ 000000018002d210     LIBCMT:winapinls.obj
 0002:00005220       ??_C@_1BG@LNOAKHIE@?$AAs?$AAr?$AA?9?$AAS?$AAP?$AA?9?$AAL?$AAa?$AAt?$AAn?$AA?$AA@ 000000018002d220     LIBCMT:winapinls.obj
 0002:00005238       ??_C@_1M@HBMHBGAK@?$AAs?$AAv?$AA?9?$AAF?$AAI?$AA?$AA@ 000000018002d238     LIBCMT:winapinls.obj
 0002:00005248       ??_C@_1BG@DGCJGJBE@?$AAa?$AAz?$AA?9?$AAA?$AAZ?$AA?9?$AAC?$AAy?$AAr?$AAl?$AA?$AA@ 000000018002d248     LIBCMT:winapinls.obj
 0002:00005260       ??_C@_1M@KEJDAAHB@?$AAs?$AAe?$AA?9?$AAS?$AAE?$AA?$AA@ 000000018002d260     LIBCMT:winapinls.obj
 0002:00005270       ??_C@_1M@HEIBJJAD@?$AAm?$AAs?$AA?9?$AAB?$AAN?$AA?$AA@ 000000018002d270     LIBCMT:winapinls.obj
 0002:00005280       ??_C@_1BG@PBGJMCEM@?$AAu?$AAz?$AA?9?$AAU?$AAZ?$AA?9?$AAC?$AAy?$AAr?$AAl?$AA?$AA@ 000000018002d280     LIBCMT:winapinls.obj
 0002:00005298       ??_C@_1O@LAOBCMDF@?$AAq?$AAu?$AAz?$AA?9?$AAE?$AAC?$AA?$AA@ 000000018002d298     LIBCMT:winapinls.obj
 0002:000052a8       ??_C@_1M@POEEMAIO@?$AAa?$AAr?$AA?9?$AAE?$AAG?$AA?$AA@ 000000018002d2a8     LIBCMT:winapinls.obj
 0002:000052b8       ??_C@_1M@EFAKDEDL@?$AAz?$AAh?$AA?9?$AAH?$AAK?$AA?$AA@ 000000018002d2b8     LIBCMT:winapinls.obj
 0002:000052c8       ??_C@_1M@HKKIJHGI@?$AAd?$AAe?$AA?9?$AAA?$AAT?$AA?$AA@ 000000018002d2c8     LIBCMT:winapinls.obj
 0002:000052d8       ??_C@_1M@KBFBEHJF@?$AAe?$AAn?$AA?9?$AAA?$AAU?$AA?$AA@ 000000018002d2d8     LIBCMT:winapinls.obj
 0002:000052e8       ??_C@_1M@MNPLFAAH@?$AAe?$AAs?$AA?9?$AAE?$AAS?$AA?$AA@ 000000018002d2e8     LIBCMT:winapinls.obj
 0002:000052f8       ??_C@_1M@HJOOJFMA@?$AAf?$AAr?$AA?9?$AAC?$AAA?$AA?$AA@ 000000018002d2f8     LIBCMT:winapinls.obj
 0002:00005308       ??_C@_1BG@JPOFPNAB@?$AAs?$AAr?$AA?9?$AAS?$AAP?$AA?9?$AAC?$AAy?$AAr?$AAl?$AA?$AA@ 000000018002d308     LIBCMT:winapinls.obj
 0002:00005320       ??_C@_1M@LNFOCMOB@?$AAs?$AAe?$AA?9?$AAF?$AAI?$AA?$AA@ 000000018002d320     LIBCMT:winapinls.obj
 0002:00005330       ??_C@_1O@MGJBOAMB@?$AAq?$AAu?$AAz?$AA?9?$AAP?$AAE?$AA?$AA@ 000000018002d330     LIBCMT:winapinls.obj
 0002:00005340       ??_C@_1M@GJINLBOK@?$AAa?$AAr?$AA?9?$AAL?$AAY?$AA?$AA@ 000000018002d340     LIBCMT:winapinls.obj
 0002:00005350       ??_C@_1M@GGMNHJNL@?$AAz?$AAh?$AA?9?$AAS?$AAG?$AA?$AA@ 000000018002d350     LIBCMT:winapinls.obj
 0002:00005360       ??_C@_1M@HOIKODND@?$AAd?$AAe?$AA?9?$AAL?$AAU?$AA?$AA@ 000000018002d360     LIBCMT:winapinls.obj
 0002:00005370       ??_C@_1M@DDOCCGFG@?$AAe?$AAn?$AA?9?$AAC?$AAA?$AA?$AA@ 000000018002d370     LIBCMT:winapinls.obj
 0002:00005380       ??_C@_1M@BNOEMJLF@?$AAe?$AAs?$AA?9?$AAG?$AAT?$AA?$AA@ 000000018002d380     LIBCMT:winapinls.obj
 0002:00005390       ??_C@_1M@EOGNKEK@?$AAf?$AAr?$AA?9?$AAC?$AAH?$AA?$AA@ 000000018002d390     LIBCMT:winapinls.obj
 0002:000053a0       ??_C@_1M@FLIDJFHL@?$AAh?$AAr?$AA?9?$AAB?$AAA?$AA?$AA@ 000000018002d3a0     LIBCMT:winapinls.obj
 0002:000053b0       ??_C@_1O@FMCELNAJ@?$AAs?$AAm?$AAj?$AA?9?$AAN?$AAO?$AA?$AA@ 000000018002d3b0     LIBCMT:winapinls.obj
 0002:000053c0       ??_C@_1M@JHGLJMGJ@?$AAa?$AAr?$AA?9?$AAD?$AAZ?$AA?$AA@ 000000018002d3c0     LIBCMT:winapinls.obj
 0002:000053d0       ??_C@_1M@JKKFDCNP@?$AAz?$AAh?$AA?9?$AAM?$AAO?$AA?$AA@ 000000018002d3d0     LIBCMT:winapinls.obj
 0002:000053e0       ??_C@_1M@GEEFALPE@?$AAd?$AAe?$AA?9?$AAL?$AAI?$AA?$AA@ 000000018002d3e0     LIBCMT:winapinls.obj
 0002:000053f0       ??_C@_1M@IGEOFBG@?$AAe?$AAn?$AA?9?$AAN?$AAZ?$AA?$AA@ 000000018002d3f0     LIBCMT:winapinls.obj
 0002:00005400       ??_C@_1M@KDBONEHP@?$AAe?$AAs?$AA?9?$AAC?$AAR?$AA?$AA@ 000000018002d400     LIBCMT:winapinls.obj
 0002:00005410       ??_C@_1M@FHMDOHNN@?$AAf?$AAr?$AA?9?$AAL?$AAU?$AA?$AA@ 000000018002d410     LIBCMT:winapinls.obj
 0002:00005420       ??_C@_1BG@NFKKMAFG@?$AAb?$AAs?$AA?9?$AAB?$AAA?$AA?9?$AAL?$AAa?$AAt?$AAn?$AA?$AA@ 000000018002d420     LIBCMT:winapinls.obj
 0002:00005438       ??_C@_1O@IMNBEMCI@?$AAs?$AAm?$AAj?$AA?9?$AAS?$AAE?$AA?$AA@ 000000018002d438     LIBCMT:winapinls.obj
 0002:00005448       ??_C@_1M@DHHMBNDP@?$AAa?$AAr?$AA?9?$AAM?$AAA?$AA?$AA@ 000000018002d448     LIBCMT:winapinls.obj
 0002:00005458       ??_C@_1M@BNBLJCGH@?$AAe?$AAn?$AA?9?$AAI?$AAE?$AA?$AA@ 000000018002d458     LIBCMT:winapinls.obj
 0002:00005468       ??_C@_1M@GEPAFMDL@?$AAe?$AAs?$AA?9?$AAP?$AAA?$AA?$AA@ 000000018002d468     LIBCMT:winapinls.obj
 0002:00005478       ??_C@_1M@OJONDMDL@?$AAf?$AAr?$AA?9?$AAM?$AAC?$AA?$AA@ 000000018002d478     LIBCMT:winapinls.obj
 0002:00005488       ??_C@_1BG@OBCNFJB@?$AAs?$AAr?$AA?9?$AAB?$AAA?$AA?9?$AAL?$AAa?$AAt?$AAn?$AA?$AA@ 000000018002d488     LIBCMT:winapinls.obj
 0002:000054a0       ??_C@_1O@KEMEEGPO@?$AAs?$AAm?$AAa?$AA?9?$AAN?$AAO?$AA?$AA@ 000000018002d4a0     LIBCMT:winapinls.obj
 0002:000054b0       ??_C@_1M@ELMGFODK@?$AAa?$AAr?$AA?9?$AAT?$AAN?$AA?$AA@ 000000018002d4b0     LIBCMT:winapinls.obj
 0002:000054c0       ??_C@_1M@BHDLHFAF@?$AAe?$AAn?$AA?9?$AAZ?$AAA?$AA?$AA@ 000000018002d4c0     LIBCMT:winapinls.obj
 0002:000054d0       ??_C@_1M@BMGIGLIF@?$AAe?$AAs?$AA?9?$AAD?$AAO?$AA?$AA@ 000000018002d4d0     LIBCMT:winapinls.obj
 0002:000054e0       ??_C@_1BG@CMBHIPBE@?$AAs?$AAr?$AA?9?$AAB?$AAA?$AA?9?$AAC?$AAy?$AAr?$AAl?$AA?$AA@ 000000018002d4e0     LIBCMT:winapinls.obj
 0002:000054f8       ??_C@_1O@HEDBLHNP@?$AAs?$AAm?$AAa?$AA?9?$AAS?$AAE?$AA?$AA@ 000000018002d4f8     LIBCMT:winapinls.obj
 0002:00005508       ??_C@_1M@DAGCADIM@?$AAa?$AAr?$AA?9?$AAO?$AAM?$AA?$AA@ 000000018002d508     LIBCMT:winapinls.obj
 0002:00005518       ??_C@_1M@FODLMICG@?$AAe?$AAn?$AA?9?$AAJ?$AAM?$AA?$AA@ 000000018002d518     LIBCMT:winapinls.obj
 0002:00005528       ??_C@_1M@DNMLCIHB@?$AAe?$AAs?$AA?9?$AAV?$AAE?$AA?$AA@ 000000018002d528     LIBCMT:winapinls.obj
 0002:00005538       ??_C@_1O@EOKHMKJK@?$AAs?$AAm?$AAs?$AA?9?$AAF?$AAI?$AA?$AA@ 000000018002d538     LIBCMT:winapinls.obj
 0002:00005548       ??_C@_1M@CAFJMKOF@?$AAa?$AAr?$AA?9?$AAY?$AAE?$AA?$AA@ 000000018002d548     LIBCMT:winapinls.obj
 0002:00005558       ??_C@_1M@CBFHIJLI@?$AAe?$AAn?$AA?9?$AAC?$AAB?$AA?$AA@ 000000018002d558     LIBCMT:winapinls.obj
 0002:00005568       ??_C@_1M@BGNFLDN@?$AAe?$AAs?$AA?9?$AAC?$AAO?$AA?$AA@ 000000018002d568     LIBCMT:winapinls.obj
 0002:00005578       ??_C@_1O@JMPHMAMC@?$AAs?$AAm?$AAn?$AA?9?$AAF?$AAI?$AA?$AA@ 000000018002d578     LIBCMT:winapinls.obj
 0002:00005588       ??_C@_1M@JLANABKE@?$AAa?$AAr?$AA?9?$AAS?$AAY?$AA?$AA@ 000000018002d588     LIBCMT:winapinls.obj
 0002:00005598       ??_C@_1M@HPKGCFGN@?$AAe?$AAn?$AA?9?$AAB?$AAZ?$AA?$AA@ 000000018002d598     LIBCMT:winapinls.obj
 0002:000055a8       ??_C@_1M@OLJCMLGM@?$AAe?$AAs?$AA?9?$AAP?$AAE?$AA?$AA@ 000000018002d5a8     LIBCMT:winapinls.obj
 0002:000055b8       ??_C@_1M@MKKGFKLE@?$AAa?$AAr?$AA?9?$AAJ?$AAO?$AA?$AA@ 000000018002d5b8     LIBCMT:winapinls.obj
 0002:000055c8       ??_C@_1M@EKPGLDNI@?$AAe?$AAn?$AA?9?$AAT?$AAT?$AA?$AA@ 000000018002d5c8     LIBCMT:winapinls.obj
 0002:000055d8       ??_C@_1M@OONGHFHE@?$AAe?$AAs?$AA?9?$AAA?$AAR?$AA?$AA@ 000000018002d5d8     LIBCMT:winapinls.obj
 0002:000055e8       ??_C@_1M@OOJFGBHE@?$AAa?$AAr?$AA?9?$AAL?$AAB?$AA?$AA@ 000000018002d5e8     LIBCMT:winapinls.obj
 0002:000055f8       ??_C@_1M@GCEJHNEG@?$AAe?$AAn?$AA?9?$AAZ?$AAW?$AA?$AA@ 000000018002d5f8     LIBCMT:winapinls.obj
 0002:00005608       ??_C@_1M@JNOCAHJI@?$AAe?$AAs?$AA?9?$AAE?$AAC?$AA?$AA@ 000000018002d608     LIBCMT:winapinls.obj
 0002:00005618       ??_C@_1M@JEFHPGGB@?$AAa?$AAr?$AA?9?$AAK?$AAW?$AA?$AA@ 000000018002d618     LIBCMT:winapinls.obj
 0002:00005628       ??_C@_1M@MLKIBJOJ@?$AAe?$AAn?$AA?9?$AAP?$AAH?$AA?$AA@ 000000018002d628     LIBCMT:winapinls.obj
 0002:00005638       ??_C@_1M@BDNIPEND@?$AAe?$AAs?$AA?9?$AAC?$AAL?$AA?$AA@ 000000018002d638     LIBCMT:winapinls.obj
 0002:00005648       ??_C@_1M@MPNMEKBD@?$AAa?$AAr?$AA?9?$AAA?$AAE?$AA?$AA@ 000000018002d648     LIBCMT:winapinls.obj
 0002:00005658       ??_C@_1M@KBJALCPI@?$AAe?$AAs?$AA?9?$AAU?$AAY?$AA?$AA@ 000000018002d658     LIBCMT:winapinls.obj
 0002:00005668       ??_C@_1M@LLCCOAGA@?$AAa?$AAr?$AA?9?$AAB?$AAH?$AA?$AA@ 000000018002d668     LIBCMT:winapinls.obj
 0002:00005678       ??_C@_1M@PBFNCDEL@?$AAe?$AAs?$AA?9?$AAP?$AAY?$AA?$AA@ 000000018002d678     LIBCMT:winapinls.obj
 0002:00005688       ??_C@_1M@EDGINPNP@?$AAa?$AAr?$AA?9?$AAQ?$AAA?$AA?$AA@ 000000018002d688     LIBCMT:winapinls.obj
 0002:00005698       ??_C@_1M@MKDBIIJI@?$AAe?$AAs?$AA?9?$AAB?$AAO?$AA?$AA@ 000000018002d698     LIBCMT:winapinls.obj
 0002:000056a8       ??_C@_1M@CPKKEBLD@?$AAe?$AAs?$AA?9?$AAS?$AAV?$AA?$AA@ 000000018002d6a8     LIBCMT:winapinls.obj
 0002:000056b8       ??_C@_1M@NDBGMMJL@?$AAe?$AAs?$AA?9?$AAH?$AAN?$AA?$AA@ 000000018002d6b8     LIBCMT:winapinls.obj
 0002:000056c8       ??_C@_1M@JIJIBHDP@?$AAe?$AAs?$AA?9?$AAN?$AAI?$AA?$AA@ 000000018002d6c8     LIBCMT:winapinls.obj
 0002:000056d8       ??_C@_1M@CGFMKEEK@?$AAe?$AAs?$AA?9?$AAP?$AAR?$AA?$AA@ 000000018002d6d8     LIBCMT:winapinls.obj
 0002:000056e8       ??_C@_1O@ICJHKIIK@?$AAz?$AAh?$AA?9?$AAC?$AAH?$AAT?$AA?$AA@ 000000018002d6e8     LIBCMT:winapinls.obj
 0002:000056f8       ??_C@_15CLNEJCE@?$AAs?$AAr?$AA?$AA@ 000000018002d6f8     LIBCMT:winapinls.obj
 0002:00005700       ??_C@_1M@KAHEKEIG@?$AAa?$AAf?$AA?9?$AAz?$AAa?$AA?$AA@ 000000018002d700     LIBCMT:winapinls.obj
 0002:00005710       ??_C@_1M@GIECOABL@?$AAa?$AAr?$AA?9?$AAa?$AAe?$AA?$AA@ 000000018002d710     LIBCMT:winapinls.obj
 0002:00005720       ??_C@_1M@BMLMEKGI@?$AAa?$AAr?$AA?9?$AAb?$AAh?$AA?$AA@ 000000018002d720     LIBCMT:winapinls.obj
 0002:00005730       ??_C@_1M@DAPFDGGB@?$AAa?$AAr?$AA?9?$AAd?$AAz?$AA?$AA@ 000000018002d730     LIBCMT:winapinls.obj
 0002:00005740       ??_C@_1M@FJNKGKIG@?$AAa?$AAr?$AA?9?$AAe?$AAg?$AA?$AA@ 000000018002d740     LIBCMT:winapinls.obj
 0002:00005750       ??_C@_1M@FLGKKCLO@?$AAa?$AAr?$AA?9?$AAi?$AAq?$AA?$AA@ 000000018002d750     LIBCMT:winapinls.obj
 0002:00005760       ??_C@_1M@GNDIPALM@?$AAa?$AAr?$AA?9?$AAj?$AAo?$AA?$AA@ 000000018002d760     LIBCMT:winapinls.obj
 0002:00005770       ??_C@_1M@DDMJFMGJ@?$AAa?$AAr?$AA?9?$AAk?$AAw?$AA?$AA@ 000000018002d770     LIBCMT:winapinls.obj
 0002:00005780       ??_C@_1M@EJALMLHM@?$AAa?$AAr?$AA?9?$AAl?$AAb?$AA?$AA@ 000000018002d780     LIBCMT:winapinls.obj
 0002:00005790       ??_C@_1M@MOBDBLOC@?$AAa?$AAr?$AA?9?$AAl?$AAy?$AA?$AA@ 000000018002d790     LIBCMT:winapinls.obj
 0002:000057a0       ??_C@_1M@JAOCLHDH@?$AAa?$AAr?$AA?9?$AAm?$AAa?$AA?$AA@ 000000018002d7a0     LIBCMT:winapinls.obj
 0002:000057b0       ??_C@_1M@JHPMKJIE@?$AAa?$AAr?$AA?9?$AAo?$AAm?$AA?$AA@ 000000018002d7b0     LIBCMT:winapinls.obj
 0002:000057c0       ??_C@_1M@OEPGHFNH@?$AAa?$AAr?$AA?9?$AAq?$AAa?$AA?$AA@ 000000018002d7c0     LIBCMT:winapinls.obj
 0002:000057d0       ??_C@_1M@KJDONENM@?$AAa?$AAr?$AA?9?$AAs?$AAa?$AA?$AA@ 000000018002d7d0     LIBCMT:winapinls.obj
 0002:000057e0       ??_C@_1M@DMJDKLKM@?$AAa?$AAr?$AA?9?$AAs?$AAy?$AA?$AA@ 000000018002d7e0     LIBCMT:winapinls.obj
 0002:000057f0       ??_C@_1M@OMFIPEDC@?$AAa?$AAr?$AA?9?$AAt?$AAn?$AA?$AA@ 000000018002d7f0     LIBCMT:winapinls.obj
 0002:00005800       ??_C@_1M@IHMHGAON@?$AAa?$AAr?$AA?9?$AAy?$AAe?$AA?$AA@ 000000018002d800     LIBCMT:winapinls.obj
 0002:00005810       ??_C@_1BG@KDCPGJGB@?$AAa?$AAz?$AA?9?$AAa?$AAz?$AA?9?$AAc?$AAy?$AAr?$AAl?$AA?$AA@ 000000018002d810     LIBCMT:winapinls.obj
 0002:00005828       ??_C@_1BG@IBCKDDOE@?$AAa?$AAz?$AA?9?$AAa?$AAz?$AA?9?$AAl?$AAa?$AAt?$AAn?$AA?$AA@ 000000018002d828     LIBCMT:winapinls.obj
 0002:00005840       ??_C@_1M@EGPFDCPD@?$AAb?$AAe?$AA?9?$AAb?$AAy?$AA?$AA@ 000000018002d840     LIBCMT:winapinls.obj
 0002:00005850       ??_C@_1M@PCMGMCGC@?$AAb?$AAg?$AA?9?$AAb?$AAg?$AA?$AA@ 000000018002d850     LIBCMT:winapinls.obj
 0002:00005860       ??_C@_1M@BJBMFGOB@?$AAb?$AAn?$AA?9?$AAi?$AAn?$AA?$AA@ 000000018002d860     LIBCMT:winapinls.obj
 0002:00005870       ??_C@_1BG@EAKMMACD@?$AAb?$AAs?$AA?9?$AAb?$AAa?$AA?9?$AAl?$AAa?$AAt?$AAn?$AA?$AA@ 000000018002d870     LIBCMT:winapinls.obj
 0002:00005888       ??_C@_1M@KGADAODK@?$AAc?$AAa?$AA?9?$AAe?$AAs?$AA?$AA@ 000000018002d888     LIBCMT:winapinls.obj
 0002:00005898       ??_C@_1M@COAJPDHI@?$AAc?$AAs?$AA?9?$AAc?$AAz?$AA?$AA@ 000000018002d898     LIBCMT:winapinls.obj
 0002:000058a8       ??_C@_1M@DHBHFONH@?$AAc?$AAy?$AA?9?$AAg?$AAb?$AA?$AA@ 000000018002d8a8     LIBCMT:winapinls.obj
 0002:000058b8       ??_C@_1M@IMGKELGA@?$AAd?$AAa?$AA?9?$AAd?$AAk?$AA?$AA@ 000000018002d8b8     LIBCMT:winapinls.obj
 0002:000058c8       ??_C@_1M@NNDGDNGA@?$AAd?$AAe?$AA?9?$AAa?$AAt?$AA?$AA@ 000000018002d8c8     LIBCMT:winapinls.obj
 0002:000058d8       ??_C@_1M@IKDBHEEM@?$AAd?$AAe?$AA?9?$AAc?$AAh?$AA?$AA@ 000000018002d8d8     LIBCMT:winapinls.obj
 0002:000058e8       ??_C@_1M@GFFOJMCJ@?$AAd?$AAe?$AA?9?$AAd?$AAe?$AA?$AA@ 000000018002d8e8     LIBCMT:winapinls.obj
 0002:000058f8       ??_C@_1M@MDNLKBPM@?$AAd?$AAe?$AA?9?$AAl?$AAi?$AA?$AA@ 000000018002d8f8     LIBCMT:winapinls.obj
 0002:00005908       ??_C@_1M@NJBEEJNL@?$AAd?$AAe?$AA?9?$AAl?$AAu?$AA?$AA@ 000000018002d908     LIBCMT:winapinls.obj
 0002:00005918       ??_C@_1O@GNNELBAP@?$AAd?$AAi?$AAv?$AA?9?$AAm?$AAv?$AA?$AA@ 000000018002d918     LIBCMT:winapinls.obj
 0002:00005928       ??_C@_1M@EJLEOGAE@?$AAe?$AAl?$AA?9?$AAg?$AAr?$AA?$AA@ 000000018002d928     LIBCMT:winapinls.obj
 0002:00005938       ??_C@_1M@GMPONJN@?$AAe?$AAn?$AA?9?$AAa?$AAu?$AA?$AA@ 000000018002d938     LIBCMT:winapinls.obj
 0002:00005948       ??_C@_1M@NIDIIPGF@?$AAe?$AAn?$AA?9?$AAb?$AAz?$AA?$AA@ 000000018002d948     LIBCMT:winapinls.obj
 0002:00005958       ??_C@_1M@JEHMIMFO@?$AAe?$AAn?$AA?9?$AAc?$AAa?$AA?$AA@ 000000018002d958     LIBCMT:winapinls.obj
 0002:00005968       ??_C@_1M@IGMJCDLA@?$AAe?$AAn?$AA?9?$AAc?$AAb?$AA?$AA@ 000000018002d968     LIBCMT:winapinls.obj
 0002:00005978       ??_C@_1M@BNFIGBKG@?$AAe?$AAn?$AA?9?$AAg?$AAb?$AA?$AA@ 000000018002d978     LIBCMT:winapinls.obj
 0002:00005988       ??_C@_1M@LKIFDIGP@?$AAe?$AAn?$AA?9?$AAi?$AAe?$AA?$AA@ 000000018002d988     LIBCMT:winapinls.obj
 0002:00005998       ??_C@_1M@PJKFGCCO@?$AAe?$AAn?$AA?9?$AAj?$AAm?$AA?$AA@ 000000018002d998     LIBCMT:winapinls.obj
 0002:000059a8       ??_C@_1M@KPPKEPBO@?$AAe?$AAn?$AA?9?$AAn?$AAz?$AA?$AA@ 000000018002d9a8     LIBCMT:winapinls.obj
 0002:000059b8       ??_C@_1M@GMDGLDOB@?$AAe?$AAn?$AA?9?$AAp?$AAh?$AA?$AA@ 000000018002d9b8     LIBCMT:winapinls.obj
 0002:000059c8       ??_C@_1M@ONGIBJNA@?$AAe?$AAn?$AA?9?$AAt?$AAt?$AA?$AA@ 000000018002d9c8     LIBCMT:winapinls.obj
 0002:000059d8       ??_C@_1M@LLODPCMM@?$AAe?$AAn?$AA?9?$AAu?$AAs?$AA?$AA@ 000000018002d9d8     LIBCMT:winapinls.obj
 0002:000059e8       ??_C@_1M@LAKFNPAN@?$AAe?$AAn?$AA?9?$AAz?$AAa?$AA?$AA@ 000000018002d9e8     LIBCMT:winapinls.obj
 0002:000059f8       ??_C@_1M@MFNHNHEO@?$AAe?$AAn?$AA?9?$AAz?$AAw?$AA?$AA@ 000000018002d9f8     LIBCMT:winapinls.obj
 0002:00005a08       ??_C@_1M@EJEINPHM@?$AAe?$AAs?$AA?9?$AAa?$AAr?$AA?$AA@ 000000018002da08     LIBCMT:winapinls.obj
 0002:00005a18       ??_C@_1M@GNKPCCJA@?$AAe?$AAs?$AA?9?$AAb?$AAo?$AA?$AA@ 000000018002da18     LIBCMT:winapinls.obj
 0002:00005a28       ??_C@_1M@LEEGFONL@?$AAe?$AAs?$AA?9?$AAc?$AAl?$AA?$AA@ 000000018002da28     LIBCMT:winapinls.obj
 0002:00005a38       ??_C@_1M@KGPDPBDF@?$AAe?$AAs?$AA?9?$AAc?$AAo?$AA?$AA@ 000000018002da38     LIBCMT:winapinls.obj
 0002:00005a48       ??_C@_1M@EIAHOHH@?$AAe?$AAs?$AA?9?$AAc?$AAr?$AA?$AA@ 000000018002da48     LIBCMT:winapinls.obj
 0002:00005a58       ??_C@_1M@LLPGMBIN@?$AAe?$AAs?$AA?9?$AAd?$AAo?$AA?$AA@ 000000018002da58     LIBCMT:winapinls.obj
 0002:00005a68       ??_C@_1M@DKHMKNJA@?$AAe?$AAs?$AA?9?$AAe?$AAc?$AA?$AA@ 000000018002da68     LIBCMT:winapinls.obj
 0002:00005a78       ??_C@_1M@GKGFPKAP@?$AAe?$AAs?$AA?9?$AAe?$AAs?$AA?$AA@ 000000018002da78     LIBCMT:winapinls.obj
 0002:00005a88       ??_C@_1M@LKHKGDLN@?$AAe?$AAs?$AA?9?$AAg?$AAt?$AA?$AA@ 000000018002da88     LIBCMT:winapinls.obj
 0002:00005a98       ??_C@_1M@HEIIGGJD@?$AAe?$AAs?$AA?9?$AAh?$AAn?$AA?$AA@ 000000018002da98     LIBCMT:winapinls.obj
 0002:00005aa8       ??_C@_1M@FBDHPPGD@?$AAe?$AAs?$AA?9?$AAm?$AAx?$AA?$AA@ 000000018002daa8     LIBCMT:winapinls.obj
 0002:00005ab8       ??_C@_1M@DPAGLNDH@?$AAe?$AAs?$AA?9?$AAn?$AAi?$AA?$AA@ 000000018002dab8     LIBCMT:winapinls.obj
 0002:00005ac8       ??_C@_1M@MDGOPGDD@?$AAe?$AAs?$AA?9?$AAp?$AAa?$AA?$AA@ 000000018002dac8     LIBCMT:winapinls.obj
 0002:00005ad8       ??_C@_1M@EMAMGBGE@?$AAe?$AAs?$AA?9?$AAp?$AAe?$AA?$AA@ 000000018002dad8     LIBCMT:winapinls.obj
 0002:00005ae8       ??_C@_1M@IBMCAOEC@?$AAe?$AAs?$AA?9?$AAp?$AAr?$AA?$AA@ 000000018002dae8     LIBCMT:winapinls.obj
 0002:00005af8       ??_C@_1M@FGMDIJED@?$AAe?$AAs?$AA?9?$AAp?$AAy?$AA?$AA@ 000000018002daf8     LIBCMT:winapinls.obj
 0002:00005b08       ??_C@_1M@IIDEOLLL@?$AAe?$AAs?$AA?9?$AAs?$AAv?$AA?$AA@ 000000018002db08     LIBCMT:winapinls.obj
 0002:00005b18       ??_C@_1M@GAOBIPA@?$AAe?$AAs?$AA?9?$AAu?$AAy?$AA?$AA@ 000000018002db18     LIBCMT:winapinls.obj
 0002:00005b28       ??_C@_1M@JKFFICHJ@?$AAe?$AAs?$AA?9?$AAv?$AAe?$AA?$AA@ 000000018002db28     LIBCMT:winapinls.obj
 0002:00005b38       ??_C@_1M@PNMLOJDF@?$AAe?$AAt?$AA?9?$AAe?$AAe?$AA?$AA@ 000000018002db38     LIBCMT:winapinls.obj
 0002:00005b48       ??_C@_1M@GHHLIKEI@?$AAe?$AAu?$AA?9?$AAe?$AAs?$AA?$AA@ 000000018002db48     LIBCMT:winapinls.obj
 0002:00005b58       ??_C@_1M@PBNONODE@?$AAf?$AAa?$AA?9?$AAi?$AAr?$AA?$AA@ 000000018002db58     LIBCMT:winapinls.obj
 0002:00005b68       ??_C@_1M@JEEHPMIL@?$AAf?$AAi?$AA?9?$AAf?$AAi?$AA?$AA@ 000000018002db68     LIBCMT:winapinls.obj
 0002:00005b78       ??_C@_1M@LMDCNDBA@?$AAf?$AAo?$AA?9?$AAf?$AAo?$AA?$AA@ 000000018002db78     LIBCMT:winapinls.obj
 0002:00005b88       ??_C@_1M@JKEOHLDK@?$AAf?$AAr?$AA?9?$AAb?$AAe?$AA?$AA@ 000000018002db88     LIBCMT:winapinls.obj
 0002:00005b98       ??_C@_1M@NOHADPMI@?$AAf?$AAr?$AA?9?$AAc?$AAa?$AA?$AA@ 000000018002db98     LIBCMT:winapinls.obj
 0002:00005ba8       ??_C@_1M@KDHIHAEC@?$AAf?$AAr?$AA?9?$AAc?$AAh?$AA?$AA@ 000000018002dba8     LIBCMT:winapinls.obj
 0002:00005bb8       ??_C@_1M@MMBBFGAK@?$AAf?$AAr?$AA?9?$AAf?$AAr?$AA?$AA@ 000000018002dbb8     LIBCMT:winapinls.obj
 0002:00005bc8       ??_C@_1M@PAFNENNF@?$AAf?$AAr?$AA?9?$AAl?$AAu?$AA?$AA@ 000000018002dbc8     LIBCMT:winapinls.obj
 0002:00005bd8       ??_C@_1M@EOHDJGDD@?$AAf?$AAr?$AA?9?$AAm?$AAc?$AA?$AA@ 000000018002dbd8     LIBCMT:winapinls.obj
 0002:00005be8       ??_C@_1M@FAPLLOPF@?$AAg?$AAl?$AA?9?$AAe?$AAs?$AA?$AA@ 000000018002dbe8     LIBCMT:winapinls.obj
 0002:00005bf8       ??_C@_1M@FOPBFLOO@?$AAg?$AAu?$AA?9?$AAi?$AAn?$AA?$AA@ 000000018002dbf8     LIBCMT:winapinls.obj
 0002:00005c08       ??_C@_1M@KBMCINPM@?$AAh?$AAe?$AA?9?$AAi?$AAl?$AA?$AA@ 000000018002dc08     LIBCMT:winapinls.obj
 0002:00005c18       ??_C@_1M@BBPHKFPJ@?$AAh?$AAi?$AA?9?$AAi?$AAn?$AA?$AA@ 000000018002dc18     LIBCMT:winapinls.obj
 0002:00005c28       ??_C@_1M@PMBNDPHD@?$AAh?$AAr?$AA?9?$AAb?$AAa?$AA?$AA@ 000000018002dc28     LIBCMT:winapinls.obj
 0002:00005c38       ??_C@_1M@BPCKOEGE@?$AAh?$AAr?$AA?9?$AAh?$AAr?$AA?$AA@ 000000018002dc38     LIBCMT:winapinls.obj
 0002:00005c48       ??_C@_1M@GACBMHKE@?$AAh?$AAu?$AA?9?$AAh?$AAu?$AA?$AA@ 000000018002dc48     LIBCMT:winapinls.obj
 0002:00005c58       ??_C@_1M@MILPAJJC@?$AAh?$AAy?$AA?9?$AAa?$AAm?$AA?$AA@ 000000018002dc58     LIBCMT:winapinls.obj
 0002:00005c68       ??_C@_1M@BABBICEC@?$AAi?$AAd?$AA?9?$AAi?$AAd?$AA?$AA@ 000000018002dc68     LIBCMT:winapinls.obj
 0002:00005c78       ??_C@_1M@BIKNHHPF@?$AAi?$AAs?$AA?9?$AAi?$AAs?$AA?$AA@ 000000018002dc78     LIBCMT:winapinls.obj
 0002:00005c88       ??_C@_1M@NMPCJPHE@?$AAi?$AAt?$AA?9?$AAc?$AAh?$AA?$AA@ 000000018002dc88     LIBCMT:winapinls.obj
 0002:00005c98       ??_C@_1M@GHKGFEDF@?$AAi?$AAt?$AA?9?$AAi?$AAt?$AA?$AA@ 000000018002dc98     LIBCMT:winapinls.obj
 0002:00005ca8       ??_C@_1M@NIEJCJJA@?$AAj?$AAa?$AA?9?$AAj?$AAp?$AA?$AA@ 000000018002dca8     LIBCMT:winapinls.obj
 0002:00005cb8       ??_C@_1M@JILFNBIM@?$AAk?$AAa?$AA?9?$AAg?$AAe?$AA?$AA@ 000000018002dcb8     LIBCMT:winapinls.obj
 0002:00005cc8       ??_C@_1M@PACPMGPH@?$AAk?$AAk?$AA?9?$AAk?$AAz?$AA?$AA@ 000000018002dcc8     LIBCMT:winapinls.obj
 0002:00005cd8       ??_C@_1M@IELFGMHA@?$AAk?$AAn?$AA?9?$AAi?$AAn?$AA?$AA@ 000000018002dcd8     LIBCMT:winapinls.obj
 0002:00005ce8       ??_C@_1O@IBBJHCH@?$AAk?$AAo?$AAk?$AA?9?$AAi?$AAn?$AA?$AA@ 000000018002dce8     LIBCMT:winapinls.obj
 0002:00005cf8       ??_C@_1M@DMHAEOGC@?$AAk?$AAo?$AA?9?$AAk?$AAr?$AA?$AA@ 000000018002dcf8     LIBCMT:winapinls.obj
 0002:00005d08       ??_C@_1M@HBAHBIGA@?$AAk?$AAy?$AA?9?$AAk?$AAg?$AA?$AA@ 000000018002dd08     LIBCMT:winapinls.obj
 0002:00005d18       ??_C@_1M@KPMILCJG@?$AAl?$AAt?$AA?9?$AAl?$AAt?$AA?$AA@ 000000018002dd18     LIBCMT:winapinls.obj
 0002:00005d28       ??_C@_1M@BDEKKCA@?$AAl?$AAv?$AA?9?$AAl?$AAv?$AA?$AA@ 000000018002dd28     LIBCMT:winapinls.obj
 0002:00005d38       ??_C@_1M@ELCKCCJJ@?$AAm?$AAi?$AA?9?$AAn?$AAz?$AA?$AA@ 000000018002dd38     LIBCMT:winapinls.obj
 0002:00005d48       ??_C@_1M@CBOOLAPA@?$AAm?$AAk?$AA?9?$AAm?$AAk?$AA?$AA@ 000000018002dd48     LIBCMT:winapinls.obj
 0002:00005d58       ??_C@_1M@GPHNBJKN@?$AAm?$AAl?$AA?9?$AAi?$AAn?$AA?$AA@ 000000018002dd58     LIBCMT:winapinls.obj
 0002:00005d68       ??_C@_1M@PABJILIG@?$AAm?$AAn?$AA?9?$AAm?$AAn?$AA?$AA@ 000000018002dd68     LIBCMT:winapinls.obj
 0002:00005d78       ??_C@_1M@FGBKKIPG@?$AAm?$AAr?$AA?9?$AAi?$AAn?$AA?$AA@ 000000018002dd78     LIBCMT:winapinls.obj
 0002:00005d88       ??_C@_1M@NDBPDDAL@?$AAm?$AAs?$AA?9?$AAb?$AAn?$AA?$AA@ 000000018002dd88     LIBCMT:winapinls.obj
 0002:00005d98       ??_C@_1M@OPIHOOPI@?$AAm?$AAs?$AA?9?$AAm?$AAy?$AA?$AA@ 000000018002dd98     LIBCMT:winapinls.obj
 0002:00005da8       ??_C@_1M@PPDBCNFM@?$AAm?$AAt?$AA?9?$AAm?$AAt?$AA?$AA@ 000000018002dda8     LIBCMT:winapinls.obj
 0002:00005db8       ??_C@_1M@KDJDKMDD@?$AAn?$AAb?$AA?9?$AAn?$AAo?$AA?$AA@ 000000018002ddb8     LIBCMT:winapinls.obj
 0002:00005dc8       ??_C@_1M@KFCFLMJP@?$AAn?$AAl?$AA?9?$AAb?$AAe?$AA?$AA@ 000000018002ddc8     LIBCMT:winapinls.obj
 0002:00005dd8       ??_C@_1M@KPOPDDGO@?$AAn?$AAl?$AA?9?$AAn?$AAl?$AA?$AA@ 000000018002ddd8     LIBCMT:winapinls.obj
 0002:00005de8       ??_C@_1M@LJKPEMLN@?$AAn?$AAn?$AA?9?$AAn?$AAo?$AA?$AA@ 000000018002dde8     LIBCMT:winapinls.obj
 0002:00005df8       ??_C@_1M@BDGHHBFL@?$AAn?$AAs?$AA?9?$AAz?$AAa?$AA?$AA@ 000000018002ddf8     LIBCMT:winapinls.obj
 0002:00005e08       ??_C@_1M@IDEHOAP@?$AAp?$AAa?$AA?9?$AAi?$AAn?$AA?$AA@ 000000018002de08     LIBCMT:winapinls.obj
 0002:00005e18       ??_C@_1M@HDBKGOGH@?$AAp?$AAl?$AA?9?$AAp?$AAl?$AA?$AA@ 000000018002de18     LIBCMT:winapinls.obj
 0002:00005e28       ??_C@_1M@LJLLCMEH@?$AAp?$AAt?$AA?9?$AAb?$AAr?$AA?$AA@ 000000018002de28     LIBCMT:winapinls.obj
 0002:00005e38       ??_C@_1M@NCMONAAL@?$AAp?$AAt?$AA?9?$AAp?$AAt?$AA?$AA@ 000000018002de38     LIBCMT:winapinls.obj
 0002:00005e48       ??_C@_1O@EAKMAJDN@?$AAq?$AAu?$AAz?$AA?9?$AAb?$AAo?$AA?$AA@ 000000018002de48     LIBCMT:winapinls.obj
 0002:00005e58       ??_C@_1O@BHHPIGDN@?$AAq?$AAu?$AAz?$AA?9?$AAe?$AAc?$AA?$AA@ 000000018002de58     LIBCMT:winapinls.obj
 0002:00005e68       ??_C@_1O@GBAPEKMJ@?$AAq?$AAu?$AAz?$AA?9?$AAp?$AAe?$AA?$AA@ 000000018002de68     LIBCMT:winapinls.obj
 0002:00005e78       ??_C@_1M@CLGLEFBO@?$AAr?$AAo?$AA?9?$AAr?$AAo?$AA?$AA@ 000000018002de78     LIBCMT:winapinls.obj
 0002:00005e88       ??_C@_1M@CEEDODME@?$AAr?$AAu?$AA?9?$AAr?$AAu?$AA?$AA@ 000000018002de88     LIBCMT:winapinls.obj
 0002:00005e98       ??_C@_1M@HPKKKMPP@?$AAs?$AAa?$AA?9?$AAi?$AAn?$AA?$AA@ 000000018002de98     LIBCMT:winapinls.obj
 0002:00005ea8       ??_C@_1M@BKMAIGOJ@?$AAs?$AAe?$AA?9?$AAf?$AAi?$AA?$AA@ 000000018002dea8     LIBCMT:winapinls.obj
 0002:00005eb8       ??_C@_1M@NDPIFLFI@?$AAs?$AAe?$AA?9?$AAn?$AAo?$AA?$AA@ 000000018002deb8     LIBCMT:winapinls.obj
 0002:00005ec8       ??_C@_1M@DANKKHJ@?$AAs?$AAe?$AA?9?$AAs?$AAe?$AA?$AA@ 000000018002dec8     LIBCMT:winapinls.obj
 0002:00005ed8       ??_C@_1M@PNBLONPJ@?$AAs?$AAk?$AA?9?$AAs?$AAk?$AA?$AA@ 000000018002ded8     LIBCMT:winapinls.obj
 0002:00005ee8       ??_C@_1M@LFMODOAL@?$AAs?$AAl?$AA?9?$AAs?$AAi?$AA?$AA@ 000000018002dee8     LIBCMT:winapinls.obj
 0002:00005ef8       ??_C@_1O@DFKOMPG@?$AAs?$AAm?$AAa?$AA?9?$AAn?$AAo?$AA?$AA@ 000000018002def8     LIBCMT:winapinls.obj
 0002:00005f08       ??_C@_1O@NDKPBNNH@?$AAs?$AAm?$AAa?$AA?9?$AAs?$AAe?$AA?$AA@ 000000018002df08     LIBCMT:winapinls.obj
 0002:00005f18       ??_C@_1O@PLLKBHAB@?$AAs?$AAm?$AAj?$AA?9?$AAn?$AAo?$AA?$AA@ 000000018002df18     LIBCMT:winapinls.obj
 0002:00005f28       ??_C@_1O@CLEPOGCA@?$AAs?$AAm?$AAj?$AA?9?$AAs?$AAe?$AA?$AA@ 000000018002df28     LIBCMT:winapinls.obj
 0002:00005f38       ??_C@_1O@DLGJGKMK@?$AAs?$AAm?$AAn?$AA?9?$AAf?$AAi?$AA?$AA@ 000000018002df38     LIBCMT:winapinls.obj
 0002:00005f48       ??_C@_1O@OJDJGAJC@?$AAs?$AAm?$AAs?$AA?9?$AAf?$AAi?$AA?$AA@ 000000018002df48     LIBCMT:winapinls.obj
 0002:00005f58       ??_C@_1M@BOFOGHPB@?$AAs?$AAq?$AA?9?$AAa?$AAl?$AA?$AA@ 000000018002df58     LIBCMT:winapinls.obj
 0002:00005f68       ??_C@_1BG@LJBBIPGB@?$AAs?$AAr?$AA?9?$AAb?$AAa?$AA?9?$AAc?$AAy?$AAr?$AAl?$AA?$AA@ 000000018002df68     LIBCMT:winapinls.obj
 0002:00005f80       ??_C@_1BG@JLBENFOE@?$AAs?$AAr?$AA?9?$AAb?$AAa?$AA?9?$AAl?$AAa?$AAt?$AAn?$AA?$AA@ 000000018002df80     LIBCMT:winapinls.obj
 0002:00005f98       ??_C@_1BG@KODPNHE@?$AAs?$AAr?$AA?9?$AAs?$AAp?$AA?9?$AAc?$AAy?$AAr?$AAl?$AA?$AA@ 000000018002df98     LIBCMT:winapinls.obj
 0002:00005fb0       ??_C@_1BG@CIOGKHPB@?$AAs?$AAr?$AA?9?$AAs?$AAp?$AA?9?$AAl?$AAa?$AAt?$AAn?$AA?$AA@ 000000018002dfb0     LIBCMT:winapinls.obj
 0002:00005fc8       ??_C@_1M@NGFJLMAC@?$AAs?$AAv?$AA?9?$AAf?$AAi?$AA?$AA@ 000000018002dfc8     LIBCMT:winapinls.obj
 0002:00005fd8       ??_C@_1M@MPJEJAJC@?$AAs?$AAv?$AA?9?$AAs?$AAe?$AA?$AA@ 000000018002dfd8     LIBCMT:winapinls.obj
 0002:00005fe8       ??_C@_1M@MPNDHLFK@?$AAs?$AAw?$AA?9?$AAk?$AAe?$AA?$AA@ 000000018002dfe8     LIBCMT:winapinls.obj
 0002:00005ff8       ??_C@_1O@KOHBJJI@?$AAs?$AAy?$AAr?$AA?9?$AAs?$AAy?$AA?$AA@ 000000018002dff8     LIBCMT:winapinls.obj
 0002:00006008       ??_C@_1M@LDCEFHA@?$AAt?$AAa?$AA?9?$AAi?$AAn?$AA?$AA@ 000000018002e008     LIBCMT:winapinls.obj
 0002:00006018       ??_C@_1M@CNJOFAK@?$AAt?$AAe?$AA?9?$AAi?$AAn?$AA?$AA@ 000000018002e018     LIBCMT:winapinls.obj
 0002:00006028       ??_C@_1M@GNAECACD@?$AAt?$AAh?$AA?9?$AAt?$AAh?$AA?$AA@ 000000018002e028     LIBCMT:winapinls.obj
 0002:00006038       ??_C@_1M@CHBIHOJO@?$AAt?$AAn?$AA?9?$AAz?$AAa?$AA?$AA@ 000000018002e038     LIBCMT:winapinls.obj
 0002:00006048       ??_C@_1M@GCCMIGPJ@?$AAt?$AAr?$AA?9?$AAt?$AAr?$AA?$AA@ 000000018002e048     LIBCMT:winapinls.obj
 0002:00006058       ??_C@_1M@CELMCNBK@?$AAt?$AAt?$AA?9?$AAr?$AAu?$AA?$AA@ 000000018002e058     LIBCMT:winapinls.obj
 0002:00006068       ??_C@_1M@KLMCELGA@?$AAu?$AAk?$AA?9?$AAu?$AAa?$AA?$AA@ 000000018002e068     LIBCMT:winapinls.obj
 0002:00006078       ??_C@_1M@EPAJJAJF@?$AAu?$AAr?$AA?9?$AAp?$AAk?$AA?$AA@ 000000018002e078     LIBCMT:winapinls.obj
 0002:00006088       ??_C@_1BG@GEGPMCDJ@?$AAu?$AAz?$AA?9?$AAu?$AAz?$AA?9?$AAc?$AAy?$AAr?$AAl?$AA?$AA@ 000000018002e088     LIBCMT:winapinls.obj
 0002:000060a0       ??_C@_1BG@EGGKJILM@?$AAu?$AAz?$AA?9?$AAu?$AAz?$AA?9?$AAl?$AAa?$AAt?$AAn?$AA?$AA@ 000000018002e0a0     LIBCMT:winapinls.obj
 0002:000060b8       ??_C@_1M@GFOCLFF@?$AAv?$AAi?$AA?9?$AAv?$AAn?$AA?$AA@ 000000018002e0b8     LIBCMT:winapinls.obj
 0002:000060c8       ??_C@_1M@CPAMEDFI@?$AAx?$AAh?$AA?9?$AAz?$AAa?$AA?$AA@ 000000018002e0c8     LIBCMT:winapinls.obj
 0002:000060d8       ??_C@_1O@EBKIFIGN@?$AAz?$AAh?$AA?9?$AAc?$AAh?$AAs?$AA?$AA@ 000000018002e0d8     LIBCMT:winapinls.obj
 0002:000060e8       ??_C@_1O@NMHPGANE@?$AAz?$AAh?$AA?9?$AAc?$AAh?$AAt?$AA?$AA@ 000000018002e0e8     LIBCMT:winapinls.obj
 0002:000060f8       ??_C@_1M@LPINJOMC@?$AAz?$AAh?$AA?9?$AAc?$AAn?$AA?$AA@ 000000018002e0f8     LIBCMT:winapinls.obj
 0002:00006108       ??_C@_1M@OCJEJODD@?$AAz?$AAh?$AA?9?$AAh?$AAk?$AA?$AA@ 000000018002e108     LIBCMT:winapinls.obj
 0002:00006118       ??_C@_1M@DNDLJINH@?$AAz?$AAh?$AA?9?$AAm?$AAo?$AA?$AA@ 000000018002e118     LIBCMT:winapinls.obj
 0002:00006128       ??_C@_1M@MBFDNDND@?$AAz?$AAh?$AA?9?$AAs?$AAg?$AA?$AA@ 000000018002e128     LIBCMT:winapinls.obj
 0002:00006138       ??_C@_1M@IMEPLEPE@?$AAz?$AAh?$AA?9?$AAt?$AAw?$AA?$AA@ 000000018002e138     LIBCMT:winapinls.obj
 0002:00006148       ??_C@_1M@BBGHNHJP@?$AAz?$AAu?$AA?9?$AAz?$AAa?$AA?$AA@ 000000018002e148     LIBCMT:winapinls.obj
 0002:00006170       ??_C@_03KHJOGHMM@exp?$AA@  000000018002e170     LIBCMT:fpexcept.obj
 0002:00006174       ??_C@_03JGHBODFD@pow?$AA@  000000018002e174     LIBCMT:fpexcept.obj
 0002:00006178       ??_C@_03MGHMBJCF@log?$AA@  000000018002e178     LIBCMT:fpexcept.obj
 0002:0000617c       ??_C@_05HGHHAHAP@log10?$AA@ 000000018002e17c     LIBCMT:fpexcept.obj
 0002:00006184       ??_C@_04COOMCNPB@sinh?$AA@ 000000018002e184     LIBCMT:fpexcept.obj
 0002:0000618c       ??_C@_04HPJJNFIM@cosh?$AA@ 000000018002e18c     LIBCMT:fpexcept.obj
 0002:00006194       ??_C@_04FJHINJAO@tanh?$AA@ 000000018002e194     LIBCMT:fpexcept.obj
 0002:0000619c       ??_C@_04FIHNOPOL@asin?$AA@ 000000018002e19c     LIBCMT:fpexcept.obj
 0002:000061a4       ??_C@_04PDIFKINK@acos?$AA@ 000000018002e1a4     LIBCMT:fpexcept.obj
 0002:000061ac       ??_C@_04MLLJIGOK@atan?$AA@ 000000018002e1ac     LIBCMT:fpexcept.obj
 0002:000061b4       ??_C@_05KNGEOGJB@atan2?$AA@ 000000018002e1b4     LIBCMT:fpexcept.obj
 0002:000061bc       ??_C@_04EIAKFFMI@sqrt?$AA@ 000000018002e1bc     LIBCMT:fpexcept.obj
 0002:000061c4       ??_C@_03BLEJJJBH@sin?$AA@  000000018002e1c4     LIBCMT:fpexcept.obj
 0002:000061c8       ??_C@_03LALBNOCG@cos?$AA@  000000018002e1c8     LIBCMT:fpexcept.obj
 0002:000061cc       ??_C@_03IIINPABG@tan?$AA@  000000018002e1cc     LIBCMT:fpexcept.obj
 0002:000061d0       ??_C@_04GFPJNGEK@ceil?$AA@ 000000018002e1d0     LIBCMT:fpexcept.obj
 0002:000061d8       ??_C@_05PBJFFIGL@floor?$AA@ 000000018002e1d8     LIBCMT:fpexcept.obj
 0002:000061e0       ??_C@_04ODHECPBC@fabs?$AA@ 000000018002e1e0     LIBCMT:fpexcept.obj
 0002:000061e8       ??_C@_04EHEDPDJG@modf?$AA@ 000000018002e1e8     LIBCMT:fpexcept.obj
 0002:000061f0       ??_C@_05CEJMAHNP@ldexp?$AA@ 000000018002e1f0     LIBCMT:fpexcept.obj
 0002:000061f8       ??_C@_05KBKMEMPO@_cabs?$AA@ 000000018002e1f8     LIBCMT:fpexcept.obj
 0002:00006200       ??_C@_04KEPJIHGP@fmod?$AA@ 000000018002e200     LIBCMT:fpexcept.obj
 0002:00006208       ??_C@_05GKKHEGJL@frexp?$AA@ 000000018002e208     LIBCMT:fpexcept.obj
 0002:00006210       ??_C@_03MJLDFKDL@_y0?$AA@  000000018002e210     LIBCMT:fpexcept.obj
 0002:00006214       ??_C@_03NAKIGLHK@_y1?$AA@  000000018002e214     LIBCMT:fpexcept.obj
 0002:00006218       ??_C@_03ONILCKOB@_yn?$AA@  000000018002e218     LIBCMT:fpexcept.obj
 0002:0000621c       ??_C@_05JGDBENOH@_logb?$AA@ 000000018002e21c     LIBCMT:fpexcept.obj
 0002:00006228       ??_C@_0L@KDOEJCKC@_nextafter?$AA@ 000000018002e228     LIBCMT:fpexcept.obj
 0002:00006240       __lookuptable_s            000000018002e240     LIBCMT:outputs.obj
 0002:000062a0       __newctype                 000000018002e2a0     LIBCMT:ctype.obj
 0002:000065a0       _wctype                    000000018002e5a0     LIBCMT:ctype.obj
 0002:000067b0       __newclmap                 000000018002e7b0     LIBCMT:ctype.obj
 0002:00006930       __newcumap                 000000018002e930     LIBCMT:ctype.obj
 0002:00006ab0       __rg_language_count        000000018002eab0     LIBCMT:getqloc.obj
 0002:00006ab4       __rg_country_count         000000018002eab4     LIBCMT:getqloc.obj
 0002:00006dd8       ??_C@_08EHJDFFNH@__based?$CI?$AA@ 000000018002edd8     LIBCMT:undname.obj
 0002:00006de8       ??_C@_07KOLFKCDI@__cdecl?$AA@ 000000018002ede8     LIBCMT:undname.obj
 0002:00006df0       ??_C@_08GHMPAG@__pascal?$AA@ 000000018002edf0     LIBCMT:undname.obj
 0002:00006e00       ??_C@_09IFJBGAPI@__stdcall?$AA@ 000000018002ee00     LIBCMT:undname.obj
 0002:00006e10       ??_C@_0L@NPHFGOKO@__thiscall?$AA@ 000000018002ee10     LIBCMT:undname.obj
 0002:00006e20       ??_C@_0L@JMKHOMEK@__fastcall?$AA@ 000000018002ee20     LIBCMT:undname.obj
 0002:00006e30       ??_C@_0N@BCKKPABJ@__vectorcall?$AA@ 000000018002ee30     LIBCMT:undname.obj
 0002:00006e40       ??_C@_09HIJEGCPM@__clrcall?$AA@ 000000018002ee40     LIBCMT:undname.obj
 0002:00006e4c       ??_C@_06GHPCKEAG@__eabi?$AA@ 000000018002ee4c     LIBCMT:undname.obj
 0002:00006e58       ??_C@_07JOMMBBKO@__ptr64?$AA@ 000000018002ee58     LIBCMT:undname.obj
 0002:00006e60       ??_C@_0L@PILCLIHE@__restrict?$AA@ 000000018002ee60     LIBCMT:undname.obj
 0002:00006e70       ??_C@_0M@GFIIJFMG@__unaligned?$AA@ 000000018002ee70     LIBCMT:undname.obj
 0002:00006e80       ??_C@_09DHDLOLLB@restrict?$CI?$AA@ 000000018002ee80     LIBCMT:undname.obj
 0002:00006e8a       ??_C@_00CNPNBAHC@?$AA@     000000018002ee8a     LIBCMT:undname.obj
 0002:00006e8c       ??_C@_04NIHEBCM@?5new?$AA@ 000000018002ee8c     LIBCMT:undname.obj
 0002:00006e98       ??_C@_07FPCDHGMM@?5delete?$AA@ 000000018002ee98     LIBCMT:undname.obj
 0002:00006ea0       ??_C@_01NEMOKFLO@?$DN?$AA@ 000000018002eea0     LIBCMT:undname.obj
 0002:00006ea4       ??_C@_02GPIOPFAK@?$DO?$DO?$AA@ 000000018002eea4     LIBCMT:undname.obj
 0002:00006ea8       ??_C@_02FODMEDOG@?$DM?$DM?$AA@ 000000018002eea8     LIBCMT:undname.obj
 0002:00006eac       ??_C@_01DCLJPIOD@?$CB?$AA@ 000000018002eeac     LIBCMT:undname.obj
 0002:00006eb0       ??_C@_02EGOFBIJA@?$DN?$DN?$AA@ 000000018002eeb0     LIBCMT:undname.obj
 0002:00006eb4       ??_C@_02FDNJECIE@?$CB?$DN?$AA@ 000000018002eeb4     LIBCMT:undname.obj
 0002:00006eb8       ??_C@_02GPECMEKF@?$FL?$FN?$AA@ 000000018002eeb8     LIBCMT:undname.obj
 0002:00006ec0       ??_C@_08LHJFAFGD@operator?$AA@ 000000018002eec0     LIBCMT:undname.obj
 0002:00006ecc       ??_C@_02HBOOOICD@?9?$DO?$AA@ 000000018002eecc     LIBCMT:undname.obj
 0002:00006ed0       ??_C@_01NBENCBCI@?$CK?$AA@ 000000018002eed0     LIBCMT:undname.obj
 0002:00006ed4       ??_C@_02ECNGHCIF@?$CL?$CL?$AA@ 000000018002eed4     LIBCMT:undname.obj
 0002:00006ed8       ??_C@_02BAABKJLB@?9?9?$AA@ 000000018002eed8     LIBCMT:undname.obj
 0002:00006edc       ??_C@_01JOAMLHOP@?9?$AA@   000000018002eedc     LIBCMT:undname.obj
 0002:00006ee0       ??_C@_01MIFGBAGJ@?$CL?$AA@ 000000018002eee0     LIBCMT:undname.obj
 0002:00006ee4       ??_C@_01HNPIGOCE@?$CG?$AA@ 000000018002eee4     LIBCMT:undname.obj
 0002:00006ee8       ??_C@_03MNHNFDLC@?9?$DO?$CK?$AA@ 000000018002eee8     LIBCMT:undname.obj
 0002:00006eec       ??_C@_01KMDKNFGN@?1?$AA@   000000018002eeec     LIBCMT:undname.obj
 0002:00006ef0       ??_C@_01FGNFDNOH@?$CF?$AA@ 000000018002eef0     LIBCMT:undname.obj
 0002:00006ef4       ??_C@_01MNNFJEPP@?$DM?$AA@ 000000018002eef4     LIBCMT:undname.obj
 0002:00006ef8       ??_C@_02EHCHHCKH@?$DM?$DN?$AA@ 000000018002eef8     LIBCMT:undname.obj
 0002:00006efc       ??_C@_01PPODPGHN@?$DO?$AA@ 000000018002eefc     LIBCMT:undname.obj
 0002:00006f00       ??_C@_02EEKDKGMJ@?$DO?$DN?$AA@ 000000018002ef00     LIBCMT:undname.obj
 0002:00006f04       ??_C@_01IHBHIGKO@?0?$AA@   000000018002ef04     LIBCMT:undname.obj
 0002:00006f08       ??_C@_02HCKGKOFO@?$CI?$CJ?$AA@ 000000018002ef08     LIBCMT:undname.obj
 0002:00006f0c       ??_C@_01PJKLJHI@?$HO?$AA@  000000018002ef0c     LIBCMT:undname.obj
 0002:00006f10       ??_C@_01JKBOJNNK@?$FO?$AA@ 000000018002ef10     LIBCMT:undname.obj
 0002:00006f14       ??_C@_01DNKMNLPK@?$HM?$AA@ 000000018002ef14     LIBCMT:undname.obj
 0002:00006f18       ??_C@_02PPKAJPJL@?$CG?$CG?$AA@ 000000018002ef18     LIBCMT:undname.obj
 0002:00006f1c       ??_C@_02NONPIBCD@?$HM?$HM?$AA@ 000000018002ef1c     LIBCMT:undname.obj
 0002:00006f20       ??_C@_02FPIMKNGF@?$CK?$DN?$AA@ 000000018002ef20     LIBCMT:undname.obj
 0002:00006f24       ??_C@_02FOEOMHFC@?$CL?$DN?$AA@ 000000018002ef24     LIBCMT:undname.obj
 0002:00006f28       ??_C@_02FKMDLLOA@?9?$DN?$AA@ 000000018002ef28     LIBCMT:undname.obj
 0002:00006f2c       ??_C@_02FJEHGPIO@?1?$DN?$AA@ 000000018002ef2c     LIBCMT:undname.obj
 0002:00006f30       ??_C@_02FENAOKFI@?$CF?$DN?$AA@ 000000018002ef30     LIBCMT:undname.obj
 0002:00006f34       ??_C@_03IKFCCPFF@?$DO?$DO?$DN?$AA@ 000000018002ef34     LIBCMT:undname.obj
 0002:00006f38       ??_C@_03CDNPDDLA@?$DM?$DM?$DN?$AA@ 000000018002ef38     LIBCMT:undname.obj
 0002:00006f3c       ??_C@_02FGJGFEAB@?$CG?$DN?$AA@ 000000018002ef3c     LIBCMT:undname.obj
 0002:00006f40       ??_C@_02DHLNPPGH@?$HM?$DN?$AA@ 000000018002ef40     LIBCMT:undname.obj
 0002:00006f44       ??_C@_02MHEGNOJ@?$FO?$DN?$AA@ 000000018002ef44     LIBCMT:undname.obj
 0002:00006f48       ??_C@_09IFPLHPGF@?$GAvftable?8?$AA@ 000000018002ef48     LIBCMT:undname.obj
 0002:00006f58       ??_C@_09BLBHBJP@?$GAvbtable?8?$AA@ 000000018002ef58     LIBCMT:undname.obj
 0002:00006f68       ??_C@_07FEEIOKP@?$GAvcall?8?$AA@ 000000018002ef68     LIBCMT:undname.obj
 0002:00006f70       ??_C@_08LLFFHHDJ@?$GAtypeof?8?$AA@ 000000018002ef70     LIBCMT:undname.obj
 0002:00006f80       ??_C@_0BF@KDPPACIK@?$GAlocal?5static?5guard?8?$AA@ 000000018002ef80     LIBCMT:undname.obj
 0002:00006f98       ??_C@_08OBABFOLI@?$GAstring?8?$AA@ 000000018002ef98     LIBCMT:undname.obj
 0002:00006fa8       ??_C@_0BD@JDLKDPAB@?$GAvbase?5destructor?8?$AA@ 000000018002efa8     LIBCMT:undname.obj
 0002:00006fc0       ??_C@_0BN@DEGPLNFK@?$GAvector?5deleting?5destructor?8?$AA@ 000000018002efc0     LIBCMT:undname.obj
 0002:00006fe0       ??_C@_0BO@OBMKPJIG@?$GAdefault?5constructor?5closure?8?$AA@ 000000018002efe0     LIBCMT:undname.obj
 0002:00007000       ??_C@_0BN@IMDCHIKM@?$GAscalar?5deleting?5destructor?8?$AA@ 000000018002f000     LIBCMT:undname.obj
 0002:00007020       ??_C@_0BO@PFGOCPJJ@?$GAvector?5constructor?5iterator?8?$AA@ 000000018002f020     LIBCMT:undname.obj
 0002:00007040       ??_C@_0BN@LFPFMEDL@?$GAvector?5destructor?5iterator?8?$AA@ 000000018002f040     LIBCMT:undname.obj
 0002:00007060       ??_C@_0CE@IKBNEHA@?$GAvector?5vbase?5constructor?5iterat@ 000000018002f060     LIBCMT:undname.obj
 0002:00007088       ??_C@_0BL@NILFHHPC@?$GAvirtual?5displacement?5map?8?$AA@ 000000018002f088     LIBCMT:undname.obj
 0002:000070a8       ??_C@_0CB@JONCMFFK@?$GAeh?5vector?5constructor?5iterator?8@ 000000018002f0a8     LIBCMT:undname.obj
 0002:000070d0       ??_C@_0CA@GCEOPDGL@?$GAeh?5vector?5destructor?5iterator?8?$AA@ 000000018002f0d0     LIBCMT:undname.obj
 0002:000070f0       ??_C@_0CH@OOJPLCPH@?$GAeh?5vector?5vbase?5constructor?5ite@ 000000018002f0f0     LIBCMT:undname.obj
 0002:00007118       ??_C@_0BL@LLKPOHJI@?$GAcopy?5constructor?5closure?8?$AA@ 000000018002f118     LIBCMT:undname.obj
 0002:00007138       ??_C@_0BA@KBCDOMBN@?$GAudt?5returning?8?$AA@ 000000018002f138     LIBCMT:undname.obj
 0002:00007148       ??_C@_03KLGMFNMG@?$GAEH?$AA@ 000000018002f148     LIBCMT:undname.obj
 0002:0000714c       ??_C@_05KHLCHHI@?$GARTTI?$AA@ 000000018002f14c     LIBCMT:undname.obj
 0002:00007158       ??_C@_0BA@KKLDJDLB@?$GAlocal?5vftable?8?$AA@ 000000018002f158     LIBCMT:undname.obj
 0002:00007168       ??_C@_0CE@IIHCMGGL@?$GAlocal?5vftable?5constructor?5closu@ 000000018002f168     LIBCMT:undname.obj
 0002:0000718c       ??_C@_06FHBGPFGH@?5new?$FL?$FN?$AA@ 000000018002f18c     LIBCMT:undname.obj
 0002:00007198       ??_C@_09LBNFPBCA@?5delete?$FL?$FN?$AA@ 000000018002f198     LIBCMT:undname.obj
 0002:000071a8       ??_C@_0P@HJKNJFNN@?$GAomni?5callsig?8?$AA@ 000000018002f1a8     LIBCMT:undname.obj
 0002:000071b8       ??_C@_0BL@CNOONJFP@?$GAplacement?5delete?5closure?8?$AA@ 000000018002f1b8     LIBCMT:undname.obj
 0002:000071d8       ??_C@_0BN@CKNJLHMB@?$GAplacement?5delete?$FL?$FN?5closure?8?$AA@ 000000018002f1d8     LIBCMT:undname.obj
 0002:000071f8       ??_C@_0CG@CFDHKGGD@?$GAmanaged?5vector?5constructor?5iter@ 000000018002f1f8     LIBCMT:undname.obj
 0002:00007220       ??_C@_0CF@IMGKMJNO@?$GAmanaged?5vector?5destructor?5itera@ 000000018002f220     LIBCMT:undname.obj
 0002:00007248       ??_C@_0CG@HLDDJMAG@?$GAeh?5vector?5copy?5constructor?5iter@ 000000018002f248     LIBCMT:undname.obj
 0002:00007270       ??_C@_0CM@FCBBDIGB@?$GAeh?5vector?5vbase?5copy?5constructo@ 000000018002f270     LIBCMT:undname.obj
 0002:000072a0       ??_C@_0BL@CLIPGLGB@?$GAdynamic?5initializer?5for?5?8?$AA@ 000000018002f2a0     LIBCMT:undname.obj
 0002:000072c0       ??_C@_0CB@PDBIFEP@?$GAdynamic?5atexit?5destructor?5for?5?8@ 000000018002f2c0     LIBCMT:undname.obj
 0002:000072e8       ??_C@_0CD@CGAJBKEJ@?$GAvector?5copy?5constructor?5iterato@ 000000018002f2e8     LIBCMT:undname.obj
 0002:00007310       ??_C@_0CJ@GJELGAMM@?$GAvector?5vbase?5copy?5constructor?5i@ 000000018002f310     LIBCMT:undname.obj
 0002:00007340       ??_C@_0CL@FGIJHLCE@?$GAmanaged?5vector?5copy?5constructor@ 000000018002f340     LIBCMT:undname.obj
 0002:00007370       ??_C@_0BM@PMGGMLDN@?$GAlocal?5static?5thread?5guard?8?$AA@ 000000018002f370     LIBCMT:undname.obj
 0002:00007390       ??_C@_0BC@DAFEJGAK@?5Type?5Descriptor?8?$AA@ 000000018002f390     LIBCMT:undname.obj
 0002:000073a8       ??_C@_0BM@LDKODKLH@?5Base?5Class?5Descriptor?5at?5?$CI?$AA@ 000000018002f3a8     LIBCMT:undname.obj
 0002:000073c8       ??_C@_0BD@LGICGFMM@?5Base?5Class?5Array?8?$AA@ 000000018002f3c8     LIBCMT:undname.obj
 0002:000073e0       ??_C@_0BN@MECKDCOJ@?5Class?5Hierarchy?5Descriptor?8?$AA@ 000000018002f3e0     LIBCMT:undname.obj
 0002:00007400       ??_C@_0BK@CFCOFLF@?5Complete?5Object?5Locator?8?$AA@ 000000018002f400     LIBCMT:undname.obj
 0002:0000741c       ??_C@_06PGGFOGJG@1?$CDSNAN?$AA@ 000000018002f41c     LIBCMT:x10fout.obj
 0002:00007424       ??_C@_05PHHOCPM@1?$CDIND?$AA@ 000000018002f424     LIBCMT:x10fout.obj
 0002:0000742c       ??_C@_05DNEBIAHO@1?$CDINF?$AA@ 000000018002f42c     LIBCMT:x10fout.obj
 0002:00007434       ??_C@_06IMKFLFPG@1?$CDQNAN?$AA@ 000000018002f434     LIBCMT:x10fout.obj
 0002:00007440       ??_C@_1BA@BALFACEM@?$AAC?$AAO?$AAN?$AAO?$AAU?$AAT?$AA$?$AA?$AA@ 000000018002f440     LIBCMT:initcon.obj
 0002:00007450       ??_C@_0BB@FFDPPBHG@privateKeyVerify?$AA@ 000000018002f450     addon.obj
 0002:00007468       ??_C@_0BB@ENGLBPDN@privateKeyExport?$AA@ 000000018002f468     addon.obj
 0002:00007480       ??_C@_0BB@NJNAOGGB@privateKeyImport?$AA@ 000000018002f480     addon.obj
 0002:00007498       ??_C@_0BB@JFGPDJIB@privateKeyNegate?$AA@ 000000018002f498     addon.obj
 0002:000074b0       ??_C@_0BF@BJLEMGHI@privateKeyModInverse?$AA@ 000000018002f4b0     addon.obj
 0002:000074c8       ??_C@_0BD@GONNKOJI@privateKeyTweakAdd?$AA@ 000000018002f4c8     addon.obj
 0002:000074e0       ??_C@_0BD@PBDGFCGP@privateKeyTweakMul?$AA@ 000000018002f4e0     addon.obj
 0002:000074f8       ??_C@_0BA@BFEMKLAJ@publicKeyCreate?$AA@ 000000018002f4f8     addon.obj
 0002:00007508       ??_C@_0BB@HNFIILKN@publicKeyConvert?$AA@ 000000018002f508     addon.obj
 0002:00007520       ??_C@_0BA@NANIGDHN@publicKeyVerify?$AA@ 000000018002f520     addon.obj
 0002:00007530       ??_C@_0BC@JDCIAANM@publicKeyTweakAdd?$AA@ 000000018002f530     addon.obj
 0002:00007548       ??_C@_0BC@MMDPMCL@publicKeyTweakMul?$AA@ 000000018002f548     addon.obj
 0002:00007560       ??_C@_0BB@GCJPAOPN@publicKeyCombine?$AA@ 000000018002f560     addon.obj
 0002:00007578       ??_C@_0BD@HCCJJHPI@signatureNormalize?$AA@ 000000018002f578     addon.obj
 0002:00007590       ??_C@_0BA@BAGCMKKI@signatureExport?$AA@ 000000018002f590     addon.obj
 0002:000075a0       ??_C@_0BA@IENJDDPE@signatureImport?$AA@ 000000018002f5a0     addon.obj
 0002:000075b0       ??_C@_0BD@MGJIGBKE@signatureImportLax?$AA@ 000000018002f5b0     addon.obj
 0002:000075c4       ??_C@_04HHGHLBPI@sign?$AA@ 000000018002f5c4     addon.obj
 0002:000075cc       ??_C@_06MCIJCFHC@verify?$AA@ 000000018002f5cc     addon.obj
 0002:000075d8       ??_C@_07CFGFKFKO@recover?$AA@ 000000018002f5d8     addon.obj
 0002:000075e0       ??_C@_04KDGGCKGB@ecdh?$AA@ 000000018002f5e0     addon.obj
 0002:000075e8       ??_C@_0L@KHIBCKIP@ecdhUnsafe?$AA@ 000000018002f5e8     addon.obj
 0002:000075f8       ??_C@_0BA@BCKMGOBK@?4?4?2src?2addon?4cc?$AA@ 000000018002f5f8     addon.obj
 0002:00007608       ??_C@_09NCBPAPNE@secp256k1?$AA@ 000000018002f608     addon.obj
 0002:00007620       ??_C@_1EM@OADKMJN@?$AAE?$AA?3?$AA?2?$AAw?$AAe?$AA3?$AAj?$AAs?$AA?9?$AA1?$AA?4?$AA0?$AA?4?$AA0?$AA?2?$AAn?$AAo?$AAd?$AAe?$AA_?$AAm?$AAo?$AAd?$AAu?$AAl?$AAe?$AAs?$AA?2?$AAn?$AAa?$AAn?$AA?2@ 000000018002f620     privatekey.obj
 0002:00007670       ??_C@_1FM@LOELJOFK@?$AAs?$AAi?$AAz?$AAe?$AA?5?$AA?$DM?$AA?$DN?$AA?5?$AAi?$AAm?$AAp?$AA?3?$AA?3?$AAk?$AAM?$AAa?$AAx?$AAL?$AAe?$AAn?$AAg?$AAt?$AAh?$AA?5?$AA?$CG?$AA?$CG?$AA?5?$AA?$CC?$AAt?$AAo?$AAo?$AA?5@ 000000018002f670     privatekey.obj
 0002:000076d0       ??_C@_0BP@JIEJBPAC@private?5key?5should?5be?5a?5Buffer?$AA@ 000000018002f6d0     privatekey.obj
 0002:000076f0       ??_C@_0BO@NLLKFAEF@private?5key?5length?5is?5invalid?$AA@ 000000018002f6f0     privatekey.obj
 0002:00007710       ??_C@_0BP@BMJKMFPI@compressed?5should?5be?5a?5boolean?$AA@ 000000018002f710     privatekey.obj
 0002:00007730       ??_C@_0BO@OOMKMKGO@couldn?8t?5export?5to?5DER?5format?$AA@ 000000018002f730     privatekey.obj
 0002:00007750       ??_C@_0CA@MCLECJC@couldn?8t?5import?5from?5DER?5format?$AA@ 000000018002f750     privatekey.obj
 0002:00007770       ??_C@_0BN@MPJFKGPJ@private?5key?5range?5is?5invalid?$AA@ 000000018002f770     privatekey.obj
 0002:00007790       ??_C@_0BJ@BHDGCNCN@tweak?5should?5be?5a?5Buffer?$AA@ 000000018002f790     privatekey.obj
 0002:000077b0       ??_C@_0BI@MBBGIAJJ@tweak?5length?5is?5invalid?$AA@ 000000018002f7b0     privatekey.obj
 0002:000077c8       ??_C@_0DH@IGLMMEC@tweak?5out?5of?5range?5or?5resulting?5@ 000000018002f7c8     privatekey.obj
 0002:00007800       ??_C@_0BD@HPKHANIC@tweak?5out?5of?5range?$AA@ 000000018002f800     privatekey.obj
 0002:00007818       ??_C@_0BP@DAHPFBIN@private?5was?5invalid?0?5try?5again?$AA@ 000000018002f818     publickey.obj
 0002:00007838       ??_C@_0BO@JJPLGBND@public?5key?5should?5be?5a?5Buffer?$AA@ 000000018002f838     publickey.obj
 0002:00007858       ??_C@_0BN@LCLFIHAE@public?5key?5length?5is?5invalid?$AA@ 000000018002f858     publickey.obj
 0002:00007878       ??_C@_0DB@GMGOFJMO@the?5public?5key?5could?5not?5be?5pars@ 000000018002f878     publickey.obj
 0002:000078b0       ??_C@_0DG@EMLGDJE@tweak?5out?5of?5range?5or?5resulting?5@ 000000018002f8b0     publickey.obj
 0002:000078e8       ??_C@_0BP@LLIAINCO@public?5keys?5should?5be?5an?5Array?$AA@ 000000018002f8e8     publickey.obj
 0002:00007908       ??_C@_0DB@MPHEOHGH@public?5keys?5Array?5should?5have?5at@ 000000018002f908     publickey.obj
 0002:00007940       ??_C@_0CI@FMAAKMBE@the?5sum?5of?5the?5public?5keys?5is?5no@ 000000018002f940     publickey.obj
 0002:00007968       ??_C@_0BN@NAIMHGIM@signature?5should?5be?5a?5Buffer?$AA@ 000000018002f968     signature.obj
 0002:00007988       ??_C@_0BM@KMOFJFOC@signature?5length?5is?5invalid?$AA@ 000000018002f988     signature.obj
 0002:000079a8       ??_C@_0BJ@MAHJLKCH@couldn?8t?5parse?5signature?$AA@ 000000018002f9a8     signature.obj
 0002:000079c8       ??_C@_0CL@LINIMNBI@couldn?8t?5serialize?5signature?5to?5@ 000000018002f9c8     signature.obj
 0002:000079f8       ??_C@_0BN@BLDHMALN@couldn?8t?5parse?5DER?5signature?$AA@ 000000018002f9f8     signature.obj
 0002:00007a18       ??_C@_0BL@LHDEFIKP@message?5should?5be?5a?5Buffer?$AA@ 000000018002fa18     ecdsa.obj
 0002:00007a38       ??_C@_0BK@MJIBHKHJ@message?5length?5is?5invalid?$AA@ 000000018002fa38     ecdsa.obj
 0002:00007a58       ??_C@_0BM@IKBCMKNI@options?5should?5be?5an?5Object?$AA@ 000000018002fa58     ecdsa.obj
 0002:00007a74       ??_C@_04PJOLNDGD@data?$AA@ 000000018002fa74     ecdsa.obj
 0002:00007a80       ??_C@_0CA@HKHILMLE@options?4data?5should?5be?5a?5Buffer?$AA@ 000000018002fa80     ecdsa.obj
 0002:00007aa0       ??_C@_0BP@FCGDPCIM@options?4data?5length?5is?5invalid?$AA@ 000000018002faa0     ecdsa.obj
 0002:00007ac0       ??_C@_07HFPCDLCO@noncefn?$AA@ 000000018002fac0     ecdsa.obj
 0002:00007ac8       ??_C@_0CF@LKLLICKN@options?4noncefn?5should?5be?5a?5Func@ 000000018002fac8     ecdsa.obj
 0002:00007af0       ??_C@_0DL@IOHGLBGB@nonce?5generation?5function?5failed@ 000000018002faf0     ecdsa.obj
 0002:00007b30       ??_C@_09CMIIOJHF@signature?$AA@ 000000018002fb30     ecdsa.obj
 0002:00007b40       ??_C@_08MPLGCJPF@recovery?$AA@ 000000018002fb40     ecdsa.obj
 0002:00007b50       ??_C@_0BM@FFMLHDJP@recovery?5should?5be?5a?5Number?$AA@ 000000018002fb50     ecdsa.obj
 0002:00007b70       ??_C@_0CM@KIIOJKEN@recovery?5should?5have?5value?5betwe@ 000000018002fb70     ecdsa.obj
 0002:00007ba0       ??_C@_0CL@FAAEGCCA@couldn?8t?5recover?5public?5key?5from@ 000000018002fba0     ecdsa.obj
 0002:00007c84       CURVE_B                    000000018002fc84     secp256k1.obj
 0002:00007d88       secp256k1_nonce_function_default 000000018002fd88     secp256k1.obj
 0002:00007d90       secp256k1_nonce_function_rfc6979 000000018002fd90     secp256k1.obj
 0002:00007f30       ??_C@_0BO@MEDHMLE@?$CBsecp256k1_fe_is_zero?$CI?$CGge?9?$DOx?$CJ?$AA@ 000000018002ff30     ecdh.obj
 0002:00007f50       ??_C@_0CG@POFFCBCI@scalar?5was?5invalid?5?$CIzero?5or?5over@ 000000018002ff50     ecdh.obj
 0002:00007f78       ??_C@_0O@NALGGDJF@Out?5of?5memory?$AA@ 000000018002ff78     secp256k1.obj
 0002:00007f88       ??_C@_0CF@PNAFLMBB@?$FLlibsecp256k1?$FN?5illegal?5argument?3@ 000000018002ff88     secp256k1.obj
 0002:00007fb0       ??_C@_0DG@BJLECLHN@?$FLlibsecp256k1?$FN?5internal?5consiste@ 000000018002ffb0     secp256k1.obj
 0002:00007fe8       ??_C@_0P@BLGFIEHN@pubkey?5?$CB?$DN?5NULL?$AA@ 000000018002ffe8     secp256k1.obj
 0002:00007ff8       ??_C@_0O@OLCODGMC@input?5?$CB?$DN?5NULL?$AA@ 000000018002fff8     secp256k1.obj
 0002:00008008       ??_C@_0BC@IEFMPDJH@outputlen?5?$CB?$DN?5NULL?$AA@ 0000000180030008     secp256k1.obj
 0002:00008020       ??_C@_0EE@LNKHCOIM@?$CKoutputlen?5?$DO?$DN?5?$CI?$CIflags?5?$CG?5SECP256K@ 0000000180030020     secp256k1.obj
 0002:00008068       ??_C@_0P@DJOPKHCB@output?5?$CB?$DN?5NULL?$AA@ 0000000180030068     secp256k1.obj
 0002:00008080       ??_C@_0EI@PFCFBFCO@?$CIflags?5?$CG?5SECP256K1_FLAGS_TYPE_MA@ 0000000180030080     secp256k1.obj
 0002:000080c8       ??_C@_0M@IIDFJBPK@sig?5?$CB?$DN?5NULL?$AA@ 00000001800300c8     secp256k1.obj
 0002:000080d8       ??_C@_0BA@NEGFEDPL@input64?5?$CB?$DN?5NULL?$AA@ 00000001800300d8     secp256k1.obj
 0002:000080e8       ??_C@_0BB@CGDOJCMH@output64?5?$CB?$DN?5NULL?$AA@ 00000001800300e8     secp256k1.obj
 0002:00008100       ??_C@_0DE@OCLDJJOD@secp256k1_ecmult_context_is_buil@ 0000000180030100     secp256k1.obj
 0002:00008138       ??_C@_0O@NEHANPEF@msg32?5?$CB?$DN?5NULL?$AA@ 0000000180030138     secp256k1.obj
 0002:00008148       ??_C@_0DM@OKJIJIHN@secp256k1_ecmult_gen_context_is_@ 0000000180030148     secp256k1.obj
 0002:00008188       ??_C@_0BC@MDDDGEFK@signature?5?$CB?$DN?5NULL?$AA@ 0000000180030188     secp256k1.obj
 0002:000081a0       ??_C@_0P@LBDMALON@seckey?5?$CB?$DN?5NULL?$AA@ 00000001800301a0     secp256k1.obj
 0002:000081b0       ??_C@_0O@FFMFCBAH@tweak?5?$CB?$DN?5NULL?$AA@ 00000001800301b0     secp256k1.obj
 0002:000081c0       ??_C@_0BB@LBEEDEP@pubnonce?5?$CB?$DN?5NULL?$AA@ 00000001800301c0     secp256k1.obj
 0002:000081d4       ??_C@_06FMPGHFMG@n?5?$DO?$DN?51?$AA@ 00000001800301d4     secp256k1.obj
 0002:000081e0       ??_C@_0BC@NKDOGIIF@pubnonces?5?$CB?$DN?5NULL?$AA@ 00000001800301e0     secp256k1.obj
 0002:000081f8       ??_C@_0BJ@LCJJGFHH@recid?5?$DO?$DN?50?5?$CG?$CG?5recid?5?$DM?$DN?53?$AA@ 00000001800301f8     secp256k1.obj
 0002:00008218       ??_C@_08HCOMDCCD@iojs?4exe?$AA@ 0000000180030218     win_delay_load_hook.obj
 0002:00008228       ??_C@_08JDDNMFDB@node?4exe?$AA@ 0000000180030228     win_delay_load_hook.obj
 0002:00008240       __xmm@5c5c5c5c5c5c5c5c5c5c5c5c5c5c5c5c 0000000180030240     addon.obj
 0002:00008250       __xmm@6a6a6a6a6a6a6a6a6a6a6a6a6a6a6a6a 0000000180030250     addon.obj
 0002:00008260       _load_config_used          0000000180030260     LIBCMT:loadcfg.obj
 0002:00008340       ??_R1A@?0A@EA@exception@std@@8 0000000180030340     libcpmt:xthrow.obj
 0002:00008368       ??_R3exception@std@@8      0000000180030368     libcpmt:xthrow.obj
 0002:00008380       ??_R2exception@std@@8      0000000180030380     libcpmt:xthrow.obj
 0002:00008390       ??_R4bad_alloc@std@@6B@    0000000180030390     libcpmt:xthrow.obj
 0002:000083b8       ??_R3bad_alloc@std@@8      00000001800303b8     libcpmt:xthrow.obj
 0002:000083d0       ??_R2bad_alloc@std@@8      00000001800303d0     libcpmt:xthrow.obj
 0002:000083e8       ??_R1A@?0A@EA@bad_alloc@std@@8 00000001800303e8     libcpmt:xthrow.obj
 0002:00008410       ??_R4type_info@@6B@        0000000180030410     LIBCMT:typinfo.obj
 0002:00008438       ??_R3type_info@@8          0000000180030438     LIBCMT:typinfo.obj
 0002:00008450       ??_R2type_info@@8          0000000180030450     LIBCMT:typinfo.obj
 0002:00008460       ??_R1A@?0A@EA@type_info@@8 0000000180030460     LIBCMT:typinfo.obj
 0002:00008488       ??_R4exception@std@@6B@    0000000180030488     LIBCMT:stdexcpt.obj
 0002:000084b0       __rtc_iaa                  00000001800304b0     LIBCMT:initsect.obj
 0002:000084b8       __rtc_izz                  00000001800304b8     LIBCMT:initsect.obj
 0002:000084c0       __rtc_taa                  00000001800304c0     LIBCMT:initsect.obj
 0002:000084c8       __rtc_tzz                  00000001800304c8     LIBCMT:initsect.obj
 0002:00009d80       _TI2?AVbad_alloc@std@@     0000000180031d80     libcpmt:xthrow.obj
 0002:00009da0       _CTA2?AVbad_alloc@std@@    0000000180031da0     libcpmt:xthrow.obj
 0002:00009db8       _CT??_R0?AVbad_alloc@std@@@8??0bad_alloc@std@@QEAA@AEBV01@@Z24 0000000180031db8     libcpmt:xthrow.obj
 0002:00009de0       _CT??_R0?AVexception@std@@@8??0exception@std@@QEAA@AEBV01@@Z24 0000000180031de0     libcpmt:xthrow.obj
 0002:00009e04       __DELAY_IMPORT_DESCRIPTOR_node_exe 0000000180031e04     node:node.exe
 0002:00009e24       __NULL_DELAY_IMPORT_DESCRIPTOR 0000000180031e24     node:node.exe
 0002:00009fe0       \177node_NULL_THUNK_DATA_DLN 0000000180031fe0     node:node.exe
 0002:0000ac60       \177node_NULL_THUNK_DATA_DLB 0000000180032c60     node:node.exe
 0002:0000ae58       __IMPORT_DESCRIPTOR_KERNEL32 0000000180032e58     kernel32:KERNEL32.dll
 0002:0000ae6c       __NULL_IMPORT_DESCRIPTOR   0000000180032e6c     kernel32:KERNEL32.dll
 0003:00000068       __abort_behavior           0000000180034068     LIBCMT:abort.obj
 0003:00000070       _iob                       0000000180034070     LIBCMT:_file.obj
 0003:00000430       _fltused                   0000000180034430     LIBCMT:fpinit.obj
 0003:00000434       _ldused                    0000000180034434     LIBCMT:fpinit.obj
 0003:00000438       __security_cookie          0000000180034438     LIBCMT:gs_cookie.obj
 0003:00000440       __security_cookie_complement 0000000180034440     LIBCMT:gs_cookie.obj
 0003:00000448       __isa_available            0000000180034448     LIBCMT:cpu_disp.obj
 0003:0000044c       __isa_enabled              000000018003444c     LIBCMT:cpu_disp.obj
 0003:00000810       __nullstring               0000000180034810     LIBCMT:output.obj
 0003:00000818       __wnullstring              0000000180034818     LIBCMT:output.obj
 0003:00000820       __badioinfo                0000000180034820     LIBCMT:ioinit.obj
 0003:00000880       _mbctype                   0000000180034880     LIBCMT:mbctype.obj
 0003:00000990       _mbcasemap                 0000000180034990     LIBCMT:mbctype.obj
 0003:00000a90       __initialmbcinfo           0000000180034a90     LIBCMT:mbctype.obj
 0003:00000db0       __ptmbcinfo                0000000180034db0     LIBCMT:mbctype.obj
 0003:00000db8       __flsindex                 0000000180034db8     LIBCMT:tidtable.obj
 0003:00000dbc       __mb_cur_max               0000000180034dbc     LIBCMT:nlsdata.obj
 0003:00000dc0       __wclocalestr              0000000180034dc0     LIBCMT:nlsdata.obj
 0003:00000dd0       __lc_time_c                0000000180034dd0     LIBCMT:nlsdata.obj
 0003:00001090       __ptlocinfo                0000000180035090     LIBCMT:nlsdata.obj
 0003:000010a0       __initiallocinfo           00000001800350a0     LIBCMT:nlsdata.obj
 0003:000011f8       __globallocalestatus       00000001800351f8     LIBCMT:glstatus.obj
 0003:00001210       _cfltcvt_tab               0000000180035210     LIBCMT:cmiscdat.obj
 0003:00001430       _matherr_flag              0000000180035430     LIBCMT:matherr.obj
 0003:00001440       __lconv_c                  0000000180035440     LIBCMT:lconv.obj
 0003:000014d8       __lconv_static_decimal     00000001800354d8     LIBCMT:lconv.obj
 0003:000014dc       __lconv_static_W_decimal   00000001800354dc     LIBCMT:lconv.obj
 0003:000014e0       __lconv                    00000001800354e0     LIBCMT:lconv.obj
 0003:000014e8       _pctype                    00000001800354e8     LIBCMT:ctype.obj
 0003:000014f0       _pwctype                   00000001800354f0     LIBCMT:ctype.obj
 0003:00001500       _d_inf                     0000000180035500     LIBCMT:util.obj
 0003:00001508       _d_ind                     0000000180035508     LIBCMT:util.obj
 0003:00001510       _d_max                     0000000180035510     LIBCMT:util.obj
 0003:00001518       _d_min                     0000000180035518     LIBCMT:util.obj
 0003:00001520       _d_mzero                   0000000180035520     LIBCMT:util.obj
 0003:00001558       _confh                     0000000180035558     LIBCMT:initcon.obj
 0003:00001560       _pow10pos                  0000000180035560     LIBCMT:constpow.obj
 0003:000016c0       _pow10neg                  00000001800356c0     LIBCMT:constpow.obj
 0003:00001820       _HUGE                      0000000180035820     LIBCMT:huge.obj
 0003:00001870       __pfnDliNotifyHook2        0000000180035870     win_delay_load_hook.obj
 0003:00001878       ??_R0?AVbad_alloc@std@@@8  0000000180035878     libcpmt:xthrow.obj
 0003:000018a0       ??_R0?AVexception@std@@@8  00000001800358a0     libcpmt:xthrow.obj
 0003:000018c8       ??_R0?AVtype_info@@@8      00000001800358c8     LIBCMT:typinfo.obj
 0003:000018e8       __imp_node_module_register 00000001800358e8     node:node.exe
 0003:000018f0       __imp_?ToLocalEmpty@V8@v8@@CAXXZ 00000001800358f0     node:node.exe
 0003:000018f8       __imp_?Escape@EscapableHandleScope@v8@@AEAAPEAPEAVObject@internal@2@PEAPEAV342@@Z 00000001800358f8     node:node.exe
 0003:00001900       __imp_??0EscapableHandleScope@v8@@QEAA@PEAVIsolate@1@@Z 0000000180035900     node:node.exe
 0003:00001908       __imp_?GetFunction@FunctionTemplate@v8@@QEAA?AV?$MaybeLocal@VFunction@v8@@@2@V?$Local@VContext@v8@@@2@@Z 0000000180035908     node:node.exe
 0003:00001910       __imp_?New@FunctionTemplate@v8@@SA?AV?$Local@VFunctionTemplate@v8@@@2@PEAVIsolate@2@P6AXAEBV?$FunctionCallbackInfo@VValue@v8@@@2@@ZV?$Local@VValue@v8@@@2@V?$Local@VSignature@v8@@@2@HW4ConstructorBehavior@2@@Z 0000000180035910     node:node.exe
 0003:00001918       __imp_?NewFromUtf8@String@v8@@SA?AV?$MaybeLocal@VString@v8@@@2@PEAVIsolate@2@PEBDW4NewStringType@2@H@Z 0000000180035918     node:node.exe
 0003:00001920       __imp_?CreateHandle@HandleScope@v8@@KAPEAPEAVObject@internal@2@PEAVIsolate@42@PEAV342@@Z 0000000180035920     node:node.exe
 0003:00001928       __imp_?CreateHandle@HandleScope@v8@@CAPEAPEAVObject@internal@2@PEAVHeapObject@42@PEAV342@@Z 0000000180035928     node:node.exe
 0003:00001930       __imp_??1HandleScope@v8@@QEAA@XZ 0000000180035930     node:node.exe
 0003:00001938       __imp_??0HandleScope@v8@@QEAA@PEAVIsolate@1@@Z 0000000180035938     node:node.exe
 0003:00001940       __imp_?SlowGetInternalField@Object@v8@@AEAA?AV?$Local@VValue@v8@@@2@H@Z 0000000180035940     node:node.exe
 0003:00001948       __imp_?SetInternalField@Object@v8@@QEAAXHV?$Local@VValue@v8@@@2@@Z 0000000180035948     node:node.exe
 0003:00001950       __imp_?Set@Object@v8@@QEAA?AV?$Maybe@_N@2@V?$Local@VContext@v8@@@2@V?$Local@VValue@v8@@@2@1@Z 0000000180035950     node:node.exe
 0003:00001958       __imp_?SetInternalFieldCount@ObjectTemplate@v8@@QEAAXH@Z 0000000180035958     node:node.exe
 0003:00001960       __imp_?NewInstance@ObjectTemplate@v8@@QEAA?AV?$MaybeLocal@VObject@v8@@@2@V?$Local@VContext@v8@@@2@@Z 0000000180035960     node:node.exe
 0003:00001968       __imp_?New@ObjectTemplate@v8@@SA?AV?$Local@VObjectTemplate@v8@@@2@PEAVIsolate@2@V?$Local@VFunctionTemplate@v8@@@2@@Z 0000000180035968     node:node.exe
 0003:00001970       __imp_?GetCurrentContext@Isolate@v8@@QEAA?AV?$Local@VContext@v8@@@2@XZ 0000000180035970     node:node.exe
 0003:00001978       __imp_?GetCurrent@Isolate@v8@@SAPEAV12@XZ 0000000180035978     node:node.exe
 0003:00001980       __imp_?Value@External@v8@@QEBAPEAXXZ 0000000180035980     node:node.exe
 0003:00001988       __imp_?New@External@v8@@SA?AV?$Local@VExternal@v8@@@2@PEAVIsolate@2@PEAX@Z 0000000180035988     node:node.exe
 0003:00001990       __imp_?Length@Buffer@node@@YA_KV?$Local@VObject@v8@@@v8@@@Z 0000000180035990     node:node.exe
 0003:00001998       __imp_?Data@Buffer@node@@YAPEADV?$Local@VObject@v8@@@v8@@@Z 0000000180035998     node:node.exe
 0003:000019a0       __imp_?HasInstance@Buffer@node@@YA_NV?$Local@VObject@v8@@@v8@@@Z 00000001800359a0     node:node.exe
 0003:000019a8       __imp_?Copy@Buffer@node@@YA?AV?$MaybeLocal@VObject@v8@@@v8@@PEAVIsolate@4@PEBD_K@Z 00000001800359a8     node:node.exe
 0003:000019b0       __imp_?BooleanValue@Value@v8@@QEBA_NXZ 00000001800359b0     node:node.exe
 0003:000019b8       __imp_?IsBooleanObject@Value@v8@@QEBA_NXZ 00000001800359b8     node:node.exe
 0003:000019c0       __imp_?IsBoolean@Value@v8@@QEBA_NXZ 00000001800359c0     node:node.exe
 0003:000019c8       __imp_?Error@Exception@v8@@SA?AV?$Local@VValue@v8@@@2@V?$Local@VString@v8@@@2@@Z 00000001800359c8     node:node.exe
 0003:000019d0       __imp_?TypeError@Exception@v8@@SA?AV?$Local@VValue@v8@@@2@V?$Local@VString@v8@@@2@@Z 00000001800359d0     node:node.exe
 0003:000019d8       __imp_?RangeError@Exception@v8@@SA?AV?$Local@VValue@v8@@@2@V?$Local@VString@v8@@@2@@Z 00000001800359d8     node:node.exe
 0003:000019e0       __imp_?ThrowException@Isolate@v8@@QEAA?AV?$Local@VValue@v8@@@2@V32@@Z 00000001800359e0     node:node.exe
 0003:000019e8       __imp_?IsArray@Value@v8@@QEBA_NXZ 00000001800359e8     node:node.exe
 0003:000019f0       __imp_?Length@Array@v8@@QEBAIXZ 00000001800359f0     node:node.exe
 0003:000019f8       __imp_?Get@Object@v8@@QEAA?AV?$Local@VValue@v8@@@2@I@Z 00000001800359f8     node:node.exe
 0003:00001a00       __imp_?Length@Buffer@node@@YA_KV?$Local@VValue@v8@@@v8@@@Z 0000000180035a00     node:node.exe
 0003:00001a08       __imp_?Data@Buffer@node@@YAPEADV?$Local@VValue@v8@@@v8@@@Z 0000000180035a08     node:node.exe
 0003:00001a10       __imp_?HasInstance@Buffer@node@@YA_NV?$Local@VValue@v8@@@v8@@@Z 0000000180035a10     node:node.exe
 0003:00001a18       __imp_?Global@Context@v8@@QEAA?AV?$Local@VObject@v8@@@2@XZ 0000000180035a18     node:node.exe
 0003:00001a20       __imp_?IntegerValue@Value@v8@@QEBA_JXZ 0000000180035a20     node:node.exe
 0003:00001a28       __imp_?ToUint32@Value@v8@@QEBA?AV?$MaybeLocal@VUint32@v8@@@2@V?$Local@VContext@v8@@@2@@Z 0000000180035a28     node:node.exe
 0003:00001a30       __imp_?IsNumberObject@Value@v8@@QEBA_NXZ 0000000180035a30     node:node.exe
 0003:00001a38       __imp_?IsNumber@Value@v8@@QEBA_NXZ 0000000180035a38     node:node.exe
 0003:00001a40       __imp_?IsObject@Value@v8@@QEBA_NXZ 0000000180035a40     node:node.exe
 0003:00001a48       __imp_?IsFunction@Value@v8@@QEBA_NXZ 0000000180035a48     node:node.exe
 0003:00001a50       __imp_?New@Number@v8@@SA?AV?$Local@VNumber@v8@@@2@PEAVIsolate@2@N@Z 0000000180035a50     node:node.exe
 0003:00001a58       __imp_?New@Object@v8@@SA?AV?$Local@VObject@v8@@@2@PEAVIsolate@2@@Z 0000000180035a58     node:node.exe
 0003:00001a60       __imp_?Get@Object@v8@@QEAA?AV?$Local@VValue@v8@@@2@V32@@Z 0000000180035a60     node:node.exe
 0003:00001a68       __imp_?Set@Object@v8@@QEAA_NV?$Local@VValue@v8@@@2@0@Z 0000000180035a68     node:node.exe
 0003:00001a70       __imp_?NewFromUnsigned@Integer@v8@@SA?AV?$Local@VInteger@v8@@@2@PEAVIsolate@2@I@Z 0000000180035a70     node:node.exe
 0003:00001a78       __imp_?Call@Function@v8@@QEAA?AV?$Local@VValue@v8@@@2@V32@HQEAV32@@Z 0000000180035a78     node:node.exe
 0003:00001a80       \177node_NULL_THUNK_DATA_DLA 0000000180035a80     node:node.exe
 0003:00001aa0       __hmod__node_exe           0000000180035aa0     node:node.exe
 0003:00001ab0       _cflush                    0000000180035ab0     LIBCMT:_file.obj
 0003:00001ac0       _aenvptr                   0000000180035ac0     LIBCMT:dllcrt0.obj
 0003:00001ac8       _wenvptr                   0000000180035ac8     LIBCMT:dllcrt0.obj
 0003:00001ad0       __fastflag                 0000000180035ad0     LIBCMT:fpinit.obj
 0003:00002054       __favor                    0000000180036054     LIBCMT:cpu_disp.obj
 0003:00002058       _C_Exit_Done               0000000180036058     LIBCMT:crt0dat.obj
 0003:0000205c       __argc                     000000018003605c     LIBCMT:crt0dat.obj
 0003:00002060       __argv                     0000000180036060     LIBCMT:crt0dat.obj
 0003:00002068       __wargv                    0000000180036068     LIBCMT:crt0dat.obj
 0003:00002070       _environ                   0000000180036070     LIBCMT:crt0dat.obj
 0003:00002078       _wenviron                  0000000180036078     LIBCMT:crt0dat.obj
 0003:00002080       _pgmptr                    0000000180036080     LIBCMT:crt0dat.obj
 0003:00002088       _wpgmptr                   0000000180036088     LIBCMT:crt0dat.obj
 0003:00002090       _umaskval                  0000000180036090     LIBCMT:crt0dat.obj
 0003:00002094       _exitflag                  0000000180036094     LIBCMT:crt0dat.obj
 0003:00002098       _C_Termination_Done        0000000180036098     LIBCMT:crt0dat.obj
 0003:000020a0       __winitenv                 00000001800360a0     LIBCMT:crt0dat.obj
 0003:000020a8       __initenv                  00000001800360a8     LIBCMT:crt0dat.obj
 0003:000020b0       _maxwait                   00000001800360b0     LIBCMT:crtheap.obj
 0003:000020b8       __pPurecall                00000001800360b8     LIBCMT:inithelp.obj
 0003:000020c0       ?_pnhHeap@@3P6AH_K@ZEA     00000001800360c0     LIBCMT:handler.obj
 0003:000020c8       __pInvalidArgHandler       00000001800360c8     LIBCMT:invarg.obj
 0003:000020d0       __error_mode               00000001800360d0     LIBCMT:errmode.obj
 0003:00002130       __app_type                 0000000180036130     LIBCMT:crt0msg.obj
 0003:00002768       _crtheap                   0000000180036768     LIBCMT:heapinit.obj
 0003:00002770       _newmode                   0000000180036770     LIBCMT:_newmode.obj
 0003:000029b0       _stdbuf                    00000001800369b0     LIBCMT:_sftbuf.obj
 0003:000029c0       __pioinfo                  00000001800369c0     LIBCMT:ioinit.obj
 0003:00002bc0       __mbcodepage               0000000180036bc0     LIBCMT:mbctype.obj
 0003:00002bc4       __ismbcodepage             0000000180036bc4     LIBCMT:mbctype.obj
 0003:00002bc8       __mbulinfo                 0000000180036bc8     LIBCMT:mbctype.obj
 0003:00002bd8       __mblocalename             0000000180036bd8     LIBCMT:mbctype.obj
 0003:00002be4       __locale_changed           0000000180036be4     LIBCMT:wsetloca.obj
 0003:00002cf8       ?g_OutOfMemoryExceptionCallback@@3P6APEAXXZEA 0000000180036cf8     LIBCMT:frame.obj
 0003:00002d00       ?__pInconsistency@@3P6AXXZEA 0000000180036d00     LIBCMT:hooks.obj
 0003:00002d30       __lconv_static_null        0000000180036d30     LIBCMT:lconv.obj
 0003:00002d34       __lconv_static_W_null      0000000180036d34     LIBCMT:lconv.obj
 0003:00002d38       ?m_pGetParameter@UnDecorator@@0P6APEADJ@ZEA 0000000180036d38     LIBCMT:undname.obj
 0003:00002d40       ?pArgList@UnDecorator@@0PEAVReplicator@@EA 0000000180036d40     LIBCMT:undname.obj
 0003:00002d48       ?pZNameList@UnDecorator@@0PEAVReplicator@@EA 0000000180036d48     LIBCMT:undname.obj
 0003:00002d50       ?pTemplateArgList@UnDecorator@@0PEAVReplicator@@EA 0000000180036d50     LIBCMT:undname.obj
 0003:00002d58       ?gName@UnDecorator@@0PEBDEB 0000000180036d58     LIBCMT:undname.obj
 0003:00002d60       ?name@UnDecorator@@0PEBDEB 0000000180036d60     LIBCMT:undname.obj
 0003:00002d68       ?outputString@UnDecorator@@0PEADEA 0000000180036d68     LIBCMT:undname.obj
 0003:00002d70       ?maxStringLength@UnDecorator@@0HA 0000000180036d70     LIBCMT:undname.obj
 0003:00002d74       ?disableFlags@UnDecorator@@0KA 0000000180036d74     LIBCMT:undname.obj
 0003:00002d78       ?fExplicitTemplateParams@UnDecorator@@0_NA 0000000180036d78     LIBCMT:undname.obj
 0003:00002d79       ?fGetTemplateArgumentList@UnDecorator@@0_NA 0000000180036d79     LIBCMT:undname.obj
 0003:00002da8       _outputformat              0000000180036da8     LIBCMT:outputformat.obj
 0003:00002db0       __pfnDliFailureHook2       0000000180036db0     DelayImp:delayhk1.obj
 0003:00002db8       ?secp256k1ctx@@3PEAUsecp256k1_context_struct@@EA 0000000180036db8     addon.obj
 0003:00002dd0       ?noncefn_callback@@3V?$Local@VFunction@v8@@@v8@@A 0000000180036dd0     ecdsa.obj
 0003:00002dd8       ?id@?$num_put@_WV?$back_insert_iterator@V?$basic_string@_WU?$char_traits@_W@std@@V?$allocator@_W@2@@std@@@std@@@std@@2V0locale@2@A 0000000180036dd8     addon.obj
 0003:00002de0       ?_System_object@?$_Error_objects@H@std@@2V_System_error_category@2@A 0000000180036de0     addon.obj
 0003:00002de8       ?id@?$numpunct@_W@std@@2V0locale@2@A 0000000180036de8     addon.obj
 0003:00002df0       ?id@?$num_put@DV?$back_insert_iterator@V?$basic_string@DU?$char_traits@D@std@@V?$allocator@D@2@@std@@@std@@@std@@2V0locale@2@A 0000000180036df0     addon.obj
 0003:00002df8       ?_Iostream_object@?$_Error_objects@H@std@@2V_Iostream_error_category@2@A 0000000180036df8     addon.obj
 0003:00002e00       ?_Generic_object@?$_Error_objects@H@std@@2V_Generic_error_category@2@A 0000000180036e00     addon.obj
 0003:00002e08       ?id@?$numpunct@D@std@@2V0locale@2@A 0000000180036e08     addon.obj
 0003:00002e10       _debugger_hook_dummy       0000000180036e10     <common>
 0003:00002e20       encodedKERNEL32Functions   0000000180036e20     <common>
 0003:00002f28       _nhandle                   0000000180036f28     <common>
 0003:00002f30       __dyn_tls_init_callback    0000000180036f30     <common>
 0003:00002f38       __onexitend                0000000180036f38     <common>
 0003:00002f40       __onexitbegin              0000000180036f40     <common>
 0003:00002f48       __mbctype_initialized      0000000180036f48     <common>
 0003:00002f4c       __env_initialized          0000000180036f4c     <common>
 0003:00002f50       _acmdln                    0000000180036f50     <common>
 0003:00002f58       __piob                     0000000180036f58     <common>
 0003:00002f60       _nstream                   0000000180036f60     <common>
 0003:00002f80       _bufin                     0000000180036f80     <common>

 entry point at        0001:00019654

 Static symbols

 0000:fffc4000       .debug$S                   0000000180000000     kernel32:KERNEL32.dll
 0000:fffc4000       .debug$S                   0000000180000000     kernel32:KERNEL32.dll
 0000:fffc4000       .debug$S                   0000000180000000     kernel32:KERNEL32.dll
 0000:fffc4000       .debug$S                   0000000180000000     kernel32:KERNEL32.dll
 0000:fffc4000       .debug$S                   0000000180000000     kernel32:KERNEL32.dll
 0000:fffc4000       .debug$S                   0000000180000000     kernel32:KERNEL32.dll
 0000:fffc4000       .debug$S                   0000000180000000     kernel32:KERNEL32.dll
 0000:fffc4000       .debug$S                   0000000180000000     kernel32:KERNEL32.dll
 0000:fffc4000       .debug$S                   0000000180000000     kernel32:KERNEL32.dll
 0000:fffc4000       .debug$S                   0000000180000000     kernel32:KERNEL32.dll
 0000:fffc4000       .debug$S                   0000000180000000     kernel32:KERNEL32.dll
 0000:fffc4000       .debug$S                   0000000180000000     kernel32:KERNEL32.dll
 0000:fffc4000       .debug$S                   0000000180000000     kernel32:KERNEL32.dll
 0000:fffc4000       .debug$S                   0000000180000000     kernel32:KERNEL32.dll
 0000:fffc4000       .debug$S                   0000000180000000     kernel32:KERNEL32.dll
 0000:fffc4000       .debug$S                   0000000180000000     kernel32:KERNEL32.dll
 0000:fffc4000       .debug$S                   0000000180000000     kernel32:KERNEL32.dll
 0000:fffc4000       .debug$S                   0000000180000000     kernel32:KERNEL32.dll
 0000:fffc4000       .debug$S                   0000000180000000     kernel32:KERNEL32.dll
 0000:fffc4000       .debug$S                   0000000180000000     kernel32:KERNEL32.dll
 0000:fffc4000       .debug$S                   0000000180000000     kernel32:KERNEL32.dll
 0000:fffc4000       .debug$S                   0000000180000000     kernel32:KERNEL32.dll
 0000:fffc4000       .debug$S                   0000000180000000     kernel32:KERNEL32.dll
 0000:fffc4000       .debug$S                   0000000180000000     kernel32:KERNEL32.dll
 0000:fffc4000       .debug$S                   0000000180000000     kernel32:KERNEL32.dll
 0000:fffc4000       .debug$S                   0000000180000000     kernel32:KERNEL32.dll
 0000:fffc4000       .debug$S                   0000000180000000     kernel32:KERNEL32.dll
 0000:fffc4000       .debug$S                   0000000180000000     kernel32:KERNEL32.dll
 0000:fffc4000       .debug$S                   0000000180000000     kernel32:KERNEL32.dll
 0000:fffc4000       .debug$S                   0000000180000000     kernel32:KERNEL32.dll
 0000:fffc4000       .debug$S                   0000000180000000     kernel32:KERNEL32.dll
 0000:fffc4000       .debug$S                   0000000180000000     kernel32:KERNEL32.dll
 0000:fffc4000       .debug$S                   0000000180000000     kernel32:KERNEL32.dll
 0000:fffc4000       .debug$S                   0000000180000000     kernel32:KERNEL32.dll
 0000:fffc4000       .debug$S                   0000000180000000     kernel32:KERNEL32.dll
 0000:fffc4000       .debug$S                   0000000180000000     kernel32:KERNEL32.dll
 0000:fffc4000       .debug$S                   0000000180000000     kernel32:KERNEL32.dll
 0000:fffc4000       .debug$S                   0000000180000000     kernel32:KERNEL32.dll
 0000:fffc4000       .debug$S                   0000000180000000     kernel32:KERNEL32.dll
 0000:fffc4000       .debug$S                   0000000180000000     kernel32:KERNEL32.dll
 0000:fffc4000       .debug$S                   0000000180000000     kernel32:KERNEL32.dll
 0000:fffc4000       .debug$S                   0000000180000000     kernel32:KERNEL32.dll
 0000:fffc4000       .debug$S                   0000000180000000     kernel32:KERNEL32.dll
 0000:fffc4000       .debug$S                   0000000180000000     kernel32:KERNEL32.dll
 0000:fffc4000       .debug$S                   0000000180000000     kernel32:KERNEL32.dll
 0000:fffc4000       .debug$S                   0000000180000000     kernel32:KERNEL32.dll
 0000:fffc4000       .debug$S                   0000000180000000     kernel32:KERNEL32.dll
 0000:fffc4000       .debug$S                   0000000180000000     kernel32:KERNEL32.dll
 0000:fffc4000       .debug$S                   0000000180000000     kernel32:KERNEL32.dll
 0000:fffc4000       .debug$S                   0000000180000000     kernel32:KERNEL32.dll
 0000:fffc4000       .debug$S                   0000000180000000     kernel32:KERNEL32.dll
 0000:fffc4000       .debug$S                   0000000180000000     kernel32:KERNEL32.dll
 0000:fffc4000       .debug$S                   0000000180000000     kernel32:KERNEL32.dll
 0000:fffc4000       .debug$S                   0000000180000000     kernel32:KERNEL32.dll
 0000:fffc4000       .debug$S                   0000000180000000     kernel32:KERNEL32.dll
 0000:fffc4000       .debug$S                   0000000180000000     kernel32:KERNEL32.dll
 0000:fffc4000       .debug$S                   0000000180000000     kernel32:KERNEL32.dll
 0000:fffc4000       .debug$S                   0000000180000000     kernel32:KERNEL32.dll
 0000:fffc4000       .debug$S                   0000000180000000     kernel32:KERNEL32.dll
 0000:fffc4000       .debug$S                   0000000180000000     kernel32:KERNEL32.dll
 0000:fffc4000       .debug$S                   0000000180000000     kernel32:KERNEL32.dll
 0000:fffc4000       .debug$S                   0000000180000000     kernel32:KERNEL32.dll
 0000:fffc4000       .debug$S                   0000000180000000     kernel32:KERNEL32.dll
 0000:fffc4000       .debug$S                   0000000180000000     kernel32:KERNEL32.dll
 0000:fffc4000       .debug$S                   0000000180000000     kernel32:KERNEL32.dll
 0000:fffc4000       .debug$S                   0000000180000000     kernel32:KERNEL32.dll
 0000:fffc4000       .debug$S                   0000000180000000     kernel32:KERNEL32.dll
 0000:fffc4000       .debug$S                   0000000180000000     kernel32:KERNEL32.dll
 0000:fffc4000       .debug$S                   0000000180000000     kernel32:KERNEL32.dll
 0000:fffc4000       .debug$S                   0000000180000000     kernel32:KERNEL32.dll
 0000:fffc4000       .debug$S                   0000000180000000     kernel32:KERNEL32.dll
 0000:fffc4000       .debug$S                   0000000180000000     kernel32:KERNEL32.dll
 0000:fffc4000       .debug$S                   0000000180000000     kernel32:KERNEL32.dll
 0000:fffc4000       .debug$S                   0000000180000000     kernel32:KERNEL32.dll
 0000:fffc4000       .debug$S                   0000000180000000     kernel32:KERNEL32.dll
 0000:fffc4000       .debug$S                   0000000180000000     kernel32:KERNEL32.dll
 0000:fffc4000       .debug$S                   0000000180000000     kernel32:KERNEL32.dll
 0000:fffc4000       .debug$S                   0000000180000000     node:node.exe
 0000:fffc4000       .debug$S                   0000000180000000     node:node.exe
 0000:fffc4000       .debug$S                   0000000180000000     node:node.exe
 0000:fffc4000       .debug$S                   0000000180000000     node:node.exe
 0000:fffc4000       .debug$S                   0000000180000000     node:node.exe
 0000:fffc4000       .debug$S                   0000000180000000     node:node.exe
 0000:fffc4000       .debug$S                   0000000180000000     node:node.exe
 0000:fffc4000       .debug$S                   0000000180000000     node:node.exe
 0000:fffc4000       .debug$S                   0000000180000000     node:node.exe
 0000:fffc4000       .debug$S                   0000000180000000     node:node.exe
 0000:fffc4000       .debug$S                   0000000180000000     node:node.exe
 0000:fffc4000       .debug$S                   0000000180000000     node:node.exe
 0000:fffc4000       .debug$S                   0000000180000000     node:node.exe
 0000:fffc4000       .debug$S                   0000000180000000     node:node.exe
 0000:fffc4000       .debug$S                   0000000180000000     node:node.exe
 0000:fffc4000       .debug$S                   0000000180000000     node:node.exe
 0000:fffc4000       .debug$S                   0000000180000000     node:node.exe
 0000:fffc4000       .debug$S                   0000000180000000     node:node.exe
 0000:fffc4000       .debug$S                   0000000180000000     node:node.exe
 0000:fffc4000       .debug$S                   0000000180000000     node:node.exe
 0000:fffc4000       .debug$S                   0000000180000000     kernel32:KERNEL32.dll
 0000:fffc4000       .debug$S                   0000000180000000     kernel32:KERNEL32.dll
 0000:fffc4000       .debug$S                   0000000180000000     node:node.exe
 0000:fffc4000       .debug$S                   0000000180000000     node:node.exe
 0000:fffc4000       .debug$S                   0000000180000000     node:node.exe
 0000:fffc4000       .debug$S                   0000000180000000     node:node.exe
 0000:fffc4000       .debug$S                   0000000180000000     node:node.exe
 0000:fffc4000       .debug$S                   0000000180000000     node:node.exe
 0000:fffc4000       .debug$S                   0000000180000000     node:node.exe
 0000:fffc4000       .debug$S                   0000000180000000     node:node.exe
 0000:fffc4000       .debug$S                   0000000180000000     node:node.exe
 0000:fffc4000       .debug$S                   0000000180000000     node:node.exe
 0000:fffc4000       .debug$S                   0000000180000000     node:node.exe
 0000:fffc4000       .debug$S                   0000000180000000     node:node.exe
 0000:fffc4000       .debug$S                   0000000180000000     node:node.exe
 0000:fffc4000       .debug$S                   0000000180000000     node:node.exe
 0000:fffc4000       .debug$S                   0000000180000000     node:node.exe
 0000:fffc4000       .debug$S                   0000000180000000     node:node.exe
 0000:fffc4000       .debug$S                   0000000180000000     node:node.exe
 0000:fffc4000       .debug$S                   0000000180000000     node:node.exe
 0000:fffc4000       .debug$S                   0000000180000000     kernel32:KERNEL32.dll
 0000:fffc4000       .debug$S                   0000000180000000     kernel32:KERNEL32.dll
 0000:fffc4000       .debug$S                   0000000180000000     node:node.exe
 0000:fffc4000       .debug$S                   0000000180000000     node:node.exe
 0000:fffc4000       .debug$S                   0000000180000000     node:node.exe
 0000:fffc4000       .debug$S                   0000000180000000     node:node.exe
 0000:fffc4000       .debug$S                   0000000180000000     node:node.exe
 0000:fffc4000       .debug$S                   0000000180000000     node:node.exe
 0000:fffc4000       .debug$S                   0000000180000000     node:node.exe
 0000:fffc4000       .debug$S                   0000000180000000     node:node.exe
 0000:fffc4000       .debug$S                   0000000180000000     node:node.exe
 0000:fffc4000       .debug$S                   0000000180000000     node:node.exe
 0000:fffc4000       .debug$S                   0000000180000000     node:node.exe
 0000:fffc4000       .debug$S                   0000000180000000     node:node.exe
 0000:fffc4000       .debug$S                   0000000180000000     node:node.exe
 0000:fffc4000       .debug$S                   0000000180000000     node:node.exe
 0000:fffc4000       .debug$S                   0000000180000000     node:node.exe
 0000:fffc4000       .debug$S                   0000000180000000     node:node.exe
 0000:fffc4000       .debug$S                   0000000180000000     node:node.exe
 0000:fffc4000       .debug$S                   0000000180000000     node:node.exe
 0000:fffc4000       .debug$S                   0000000180000000     node:node.exe
 0000:fffc4000       .debug$S                   0000000180000000     node:node.exe
 0000:fffc4000       .debug$S                   0000000180000000     node:node.exe
 0000:fffc4000       .debug$S                   0000000180000000     node:node.exe
 0000:fffc4000       .debug$S                   0000000180000000     kernel32:KERNEL32.dll
 0001:00000000       ??__Epiecewise_construct@std@@YAXXZ 0000000180001000 f   * CIL library *:* CIL module *
 0001:00000010       ??__Eallocator_arg@std@@YAXXZ 0000000180001010 f   * CIL library *:* CIL module *
 0001:00000020       ??__Epiecewise_construct@std@@YAXXZ 0000000180001020 f   * CIL library *:* CIL module *
 0001:00000030       ??__Eallocator_arg@std@@YAXXZ 0000000180001030 f   * CIL library *:* CIL module *
 0001:00000040       ??__Epiecewise_construct@std@@YAXXZ 0000000180001040 f   * CIL library *:* CIL module *
 0001:00000050       ??__Eallocator_arg@std@@YAXXZ 0000000180001050 f   * CIL library *:* CIL module *
 0001:00000060       ??__Epiecewise_construct@std@@YAXXZ 0000000180001060 f   * CIL library *:* CIL module *
 0001:00000070       ??__Eallocator_arg@std@@YAXXZ 0000000180001070 f   * CIL library *:* CIL module *
 0001:00000080       ??__Epiecewise_construct@std@@YAXXZ 0000000180001080 f   * CIL library *:* CIL module *
 0001:00000090       ??__Eallocator_arg@std@@YAXXZ 0000000180001090 f   * CIL library *:* CIL module *
 0001:000000a0       ??__Enoncefn_callback@@YAXXZ 00000001800010a0 f   * CIL library *:* CIL module *
 0001:000000b0       ??__Epiecewise_construct@std@@YAXXZ 00000001800010b0 f   * CIL library *:* CIL module *
 0001:000000c0       ??__Eallocator_arg@std@@YAXXZ 00000001800010c0 f   * CIL library *:* CIL module *
 0001:000000d0       ?FunctionCallbackWrapper@imp@Nan@@YAXAEBV?$FunctionCallbackInfo@VValue@v8@@@v8@@@Z 00000001800010d0 f   * CIL library *:* CIL module *
 0001:00000740       _register_secp256k1        0000000180001740 f   * CIL library *:* CIL module *
 0001:00000900       ?secp256k1_scalar_check_overflow@@YAHPEBUsecp256k1_scalar@@@Z 0000000180001900 f   * CIL library *:* CIL module *
 0001:00000900       ?secp256k1_scalar_check_overflow@@YAHPEBUsecp256k1_scalar@@@Z 0000000180001900 f   * CIL library *:* CIL module *
 0001:00000900       secp256k1_scalar_check_overflow 0000000180001900 f   * CIL library *:* CIL module *
 0001:000009f0       secp256k1_scalar_set_b32   00000001800019f0 f   * CIL library *:* CIL module *
 0001:000009f0       ?secp256k1_scalar_set_b32@@YAXPEAUsecp256k1_scalar@@PEBEPEAH@Z 00000001800019f0 f   * CIL library *:* CIL module *
 0001:00000c00       ?secp256k1_scalar_reduce_512@@YAXPEAUsecp256k1_scalar@@PEBI@Z 0000000180001c00 f   * CIL library *:* CIL module *
 0001:00000c00       secp256k1_scalar_reduce_512 0000000180001c00 f   * CIL library *:* CIL module *
 0001:00001690       secp256k1_scalar_mul_512   0000000180002690 f   * CIL library *:* CIL module *
 0001:00001690       ?secp256k1_scalar_mul_512@@YAXPEAIPEBUsecp256k1_scalar@@1@Z 0000000180002690 f   * CIL library *:* CIL module *
 0001:00001fe0       secp256k1_scalar_sqr_512   0000000180002fe0 f   * CIL library *:* CIL module *
 0001:00001fe0       ?secp256k1_scalar_sqr_512@@YAXPEAIPEBUsecp256k1_scalar@@@Z 0000000180002fe0 f   * CIL library *:* CIL module *
 0001:00002900       secp256k1_scalar_inverse   0000000180003900 f   * CIL library *:* CIL module *
 0001:00002900       ?secp256k1_scalar_inverse@@YAXPEAUsecp256k1_scalar@@PEBU1@@Z 0000000180003900 f   * CIL library *:* CIL module *
 0001:00006500       secp256k1_fe_normalize     0000000180007500 f   * CIL library *:* CIL module *
 0001:00006500       ?secp256k1_fe_normalize@@YAXPEAUsecp256k1_fe@@@Z 0000000180007500 f   * CIL library *:* CIL module *
 0001:00006710       ?secp256k1_fe_normalize_weak@@YAXPEAUsecp256k1_fe@@@Z 0000000180007710 f   * CIL library *:* CIL module *
 0001:00006710       secp256k1_fe_normalize_weak 0000000180007710 f   * CIL library *:* CIL module *
 0001:00006810       ?secp256k1_fe_normalizes_to_zero@@YAHPEAUsecp256k1_fe@@@Z 0000000180007810 f   * CIL library *:* CIL module *
 0001:00006810       secp256k1_fe_normalizes_to_zero 0000000180007810 f   * CIL library *:* CIL module *
 0001:00006950       secp256k1_fe_normalizes_to_zero_var 0000000180007950 f   * CIL library *:* CIL module *
 0001:00006950       ?secp256k1_fe_normalizes_to_zero_var@@YAHPEAUsecp256k1_fe@@@Z 0000000180007950 f   * CIL library *:* CIL module *
 0001:00006ad0       secp256k1_fe_get_b32       0000000180007ad0 f   * CIL library *:* CIL module *
 0001:00006ad0       ?secp256k1_fe_get_b32@@YAXPEAEPEBUsecp256k1_fe@@@Z 0000000180007ad0 f   * CIL library *:* CIL module *
 0001:00006c50       secp256k1_fe_negate        0000000180007c50 f   * CIL library *:* CIL module *
 0001:00006c50       ?secp256k1_fe_negate@@YAXPEAUsecp256k1_fe@@PEBU1@H@Z 0000000180007c50 f   * CIL library *:* CIL module *
 0001:00006d00       ?secp256k1_fe_mul_inner@@YAXPEAIPEBIPEIBI@Z 0000000180007d00 f   * CIL library *:* CIL module *
 0001:00007530       secp256k1_fe_sqr_inner     0000000180008530 f   * CIL library *:* CIL module *
 0001:00007530       ?secp256k1_fe_sqr_inner@@YAXPEAIPEBI@Z 0000000180008530 f   * CIL library *:* CIL module *
 0001:00007a90       secp256k1_fe_cmov          0000000180008a90 f   * CIL library *:* CIL module *
 0001:00007a90       ?secp256k1_fe_cmov@@YAXPEAUsecp256k1_fe@@PEBU1@H@Z 0000000180008a90 f   * CIL library *:* CIL module *
 0001:00007b60       ?secp256k1_fe_from_storage@@YAXPEAUsecp256k1_fe@@PEBUsecp256k1_fe_storage@@@Z 0000000180008b60 f   * CIL library *:* CIL module *
 0001:00007b60       secp256k1_fe_from_storage  0000000180008b60 f   * CIL library *:* CIL module *
 0001:00007c30       ?secp256k1_fe_inv@@YAXPEAUsecp256k1_fe@@PEBU1@@Z 0000000180008c30 f   * CIL library *:* CIL module *
 0001:00008060       ?secp256k1_scalar_cadd_bit@@YAXPEAUsecp256k1_scalar@@IH@Z 0000000180009060 f   * CIL library *:* CIL module *
 0001:00008180       ?secp256k1_scalar_set_b32@@YAXPEAUsecp256k1_scalar@@PEBEPEAH@Z 0000000180009180 f   * CIL library *:* CIL module *
 0001:00008380       ?secp256k1_scalar_negate@@YAXPEAUsecp256k1_scalar@@PEBU1@@Z 0000000180009380 f   * CIL library *:* CIL module *
 0001:000084c0       ?secp256k1_scalar_is_high@@YAHPEBUsecp256k1_scalar@@@Z 00000001800094c0 f   * CIL library *:* CIL module *
 0001:000084c0       secp256k1_scalar_is_high   00000001800094c0 f   * CIL library *:* CIL module *
 0001:000085b0       ?secp256k1_scalar_cond_negate@@YAHPEAUsecp256k1_scalar@@H@Z 00000001800095b0 f   * CIL library *:* CIL module *
 0001:00008720       ?secp256k1_ge_set_gej@@YAXPEAUsecp256k1_ge@@PEAUsecp256k1_gej@@@Z 0000000180009720 f   * CIL library *:* CIL module *
 0001:00008800       ?secp256k1_gej_double_var@@YAXPEAUsecp256k1_gej@@PEBU1@PEAUsecp256k1_fe@@@Z 0000000180009800 f   * CIL library *:* CIL module *
 0001:00008d00       ?secp256k1_gej_add_ge_var@@YAXPEAUsecp256k1_gej@@PEBU1@PEBUsecp256k1_ge@@PEAUsecp256k1_fe@@@Z 0000000180009d00 f   * CIL library *:* CIL module *
 0001:000092a0       ?secp256k1_gej_add_ge@@YAXPEAUsecp256k1_gej@@PEBU1@PEBUsecp256k1_ge@@@Z 000000018000a2a0 f   * CIL library *:* CIL module *
 0001:00009c60       ?secp256k1_ge_to_storage@@YAXPEAUsecp256k1_ge_storage@@PEBUsecp256k1_ge@@@Z 000000018000ac60 f   * CIL library *:* CIL module *
 0001:00009c60       secp256k1_ge_to_storage    000000018000ac60 f   * CIL library *:* CIL module *
 0001:00009de0       ?secp256k1_ecmult_odd_multiples_table@@YAXHPEAUsecp256k1_gej@@PEAUsecp256k1_fe@@PEBU1@@Z 000000018000ade0 f   * CIL library *:* CIL module *
 0001:00009f90       ?secp256k1_wnaf_const@@YAHPEAHUsecp256k1_scalar@@H@Z 000000018000af90 f   * CIL library *:* CIL module *
 0001:0000a1e0       ?secp256k1_ecmult_const@@YAXPEAUsecp256k1_gej@@PEBUsecp256k1_ge@@PEBUsecp256k1_scalar@@@Z 000000018000b1e0 f   * CIL library *:* CIL module *
 0001:0000b0f0       ?secp256k1_sha256_transform@@YAXPEAIPEBI@Z 000000018000c0f0 f   * CIL library *:* CIL module *
 0001:0000b0f0       secp256k1_sha256_transform 000000018000c0f0 f   * CIL library *:* CIL module *
 0001:0000d690       secp256k1_sha256_write     000000018000e690 f   * CIL library *:* CIL module *
 0001:0000d690       ?secp256k1_sha256_write@@YAXPEAUsecp256k1_sha256_t@@PEBE_K@Z 000000018000e690 f   * CIL library *:* CIL module *
 0001:0000d750       ?secp256k1_sha256_finalize@@YAXPEAUsecp256k1_sha256_t@@PEAE@Z 000000018000e750 f   * CIL library *:* CIL module *
 0001:0000e050       secp256k1_fe_normalize_var 000000018000f050 f   * CIL library *:* CIL module *
 0001:0000e260       secp256k1_fe_set_b32       000000018000f260 f   * CIL library *:* CIL module *
 0001:0000e480       secp256k1_fe_mul_inner     000000018000f480 f   * CIL library *:* CIL module *
 0001:0000ecc0       secp256k1_fe_sqrt          000000018000fcc0 f   * CIL library *:* CIL module *
 0001:0000f150       secp256k1_fe_inv           0000000180010150 f   * CIL library *:* CIL module *
 0001:0000f580       secp256k1_fe_inv_all_var   0000000180010580 f   * CIL library *:* CIL module *
 0001:0000f690       secp256k1_scalar_add       0000000180010690 f   * CIL library *:* CIL module *
 0001:0000f7f0       secp256k1_scalar_get_b32   00000001800107f0 f   * CIL library *:* CIL module *
 0001:0000f8e0       secp256k1_scalar_negate    00000001800108e0 f   * CIL library *:* CIL module *
 0001:0000f9f0       secp256k1_ge_set_gej       00000001800109f0 f   * CIL library *:* CIL module *
 0001:0000fad0       secp256k1_ge_set_gej_var   0000000180010ad0 f   * CIL library *:* CIL module *
 0001:0000fba0       secp256k1_ge_set_all_gej_var 0000000180010ba0 f   * CIL library *:* CIL module *
 0001:0000fda0       secp256k1_ge_set_table_gej_var 0000000180010da0 f   * CIL library *:* CIL module *
 0001:0000fee0       secp256k1_gej_eq_x_var     0000000180010ee0 f   * CIL library *:* CIL module *
 0001:0000fff0       secp256k1_gej_neg          0000000180010ff0 f   * CIL library *:* CIL module *
 0001:000100c0       secp256k1_ge_is_valid_var  00000001800110c0 f   * CIL library *:* CIL module *
 0001:000101e0       secp256k1_gej_double_var   00000001800111e0 f   * CIL library *:* CIL module *
 0001:000106e0       secp256k1_gej_add_var      00000001800116e0 f   * CIL library *:* CIL module *
 0001:00010c30       secp256k1_gej_add_ge_var   0000000180011c30 f   * CIL library *:* CIL module *
 0001:000111d0       secp256k1_gej_add_zinv_var 00000001800121d0 f   * CIL library *:* CIL module *
 0001:000116f0       secp256k1_gej_add_ge       00000001800126f0 f   * CIL library *:* CIL module *
 0001:000120b0       secp256k1_ge_storage_cmov  00000001800130b0 f   * CIL library *:* CIL module *
 0001:000121e0       secp256k1_ecmult_odd_multiples_table 00000001800131e0 f   * CIL library *:* CIL module *
 0001:00012390       secp256k1_ecmult_odd_multiples_table_storage_var 0000000180013390 f   * CIL library *:* CIL module *
 0001:00012480       secp256k1_ecmult_context_build 0000000180013480 f   * CIL library *:* CIL module *
 0001:00012560       secp256k1_ecmult_wnaf      0000000180013560 f   * CIL library *:* CIL module *
 0001:000127f0       secp256k1_ecmult           00000001800137f0 f   * CIL library *:* CIL module *
 0001:00012fd0       secp256k1_sha256_finalize  0000000180013fd0 f   * CIL library *:* CIL module *
 0001:00013120       secp256k1_hmac_sha256_initialize 0000000180014120 f   * CIL library *:* CIL module *
 0001:00013380       secp256k1_rfc6979_hmac_sha256_initialize 0000000180014380 f   * CIL library *:* CIL module *
 0001:00013580       secp256k1_rfc6979_hmac_sha256_generate 0000000180014580 f   * CIL library *:* CIL module *
 0001:00013780       secp256k1_ecmult_gen_context_build 0000000180014780 f   * CIL library *:* CIL module *
 0001:00013ce0       secp256k1_ecmult_gen       0000000180014ce0 f   * CIL library *:* CIL module *
 0001:00013fc0       secp256k1_ecmult_gen_blind 0000000180014fc0 f   * CIL library *:* CIL module *
 0001:00014460       secp256k1_der_read_len     0000000180015460 f   * CIL library *:* CIL module *
 0001:00014520       secp256k1_der_parse_integer 0000000180015520 f   * CIL library *:* CIL module *
 0001:00014680       secp256k1_ecdsa_sig_serialize 0000000180015680 f   * CIL library *:* CIL module *
 0001:000147b0       secp256k1_ecdsa_sig_verify 00000001800157b0 f   * CIL library *:* CIL module *
 0001:000149b0       secp256k1_eckey_pubkey_parse 00000001800159b0 f   * CIL library *:* CIL module *
 0001:00014b90       default_illegal_callback_fn 0000000180015b90 f   * CIL library *:* CIL module *
 0001:00014bc0       default_error_callback_fn  0000000180015bc0 f   * CIL library *:* CIL module *
 0001:00014c70       secp256k1_pubkey_load      0000000180015c70 f   * CIL library *:* CIL module *
 0001:00015420       nonce_function_rfc6979     0000000180016420 f   * CIL library *:* CIL module *
 0001:00016640       secp256k1_ecdsa_sig_recover 0000000180017640 f   * CIL library *:* CIL module *
 0001:00017a20       ?load_exe_hook@@YAP6A_JXZIPEAUDelayLoadInfo@@@Z 0000000180018a20 f   * CIL library *:* CIL module *
 0001:00017dd0       $$000000                   0000000180018dd0     LIBCMT:amdsecgs.obj
 0001:00017e00       $$000000                   0000000180018e00     LIBCMT:memcpy.obj
 0001:00017ef0       MoveSmall                  0000000180018ef0     LIBCMT:memcpy.obj
 0001:00018e94       swprintf                   0000000180019e94 f   LIBCMT:wassert.obj
 0001:00019694       __DllMainCRTStartup        000000018001a694 f   LIBCMT:dllcrt0.obj
 0001:000197c0       $$000000                   000000018001a7c0     LIBCMT:strlen.obj
 0001:0001a10c       _initterm                  000000018001b10c f   LIBCMT:crt0dat.obj
 0001:0001a1c0       doexit                     000000018001b1c0 f   LIBCMT:crt0dat.obj
 0001:0001abe4       xtow_s                     000000018001bbe4 f   LIBCMT:xtows.obj
 0001:0001ae0c       flsall                     000000018001be0c f   LIBCMT:fflush.obj
 0001:0001c930       write_char                 000000018001d930 f   LIBCMT:output.obj
 0001:0001c978       write_multi_char           000000018001d978 f   LIBCMT:output.obj
 0001:0001c9cc       write_string               000000018001d9cc f   LIBCMT:output.obj
 0001:0001d1d0       ?getSystemCP@@YAHH@Z       000000018001e1d0 f   LIBCMT:mbctype.obj
 0001:0001d250       ?setSBCS@@YAXPEAUthreadmbcinfostruct@@@Z 000000018001e250 f   LIBCMT:mbctype.obj
 0001:0001d2e0       ?setSBUpLow@@YAXPEAUthreadmbcinfostruct@@@Z 000000018001e2e0 f   LIBCMT:mbctype.obj
 0001:0001e284       parse_cmdline              000000018001f284 f   LIBCMT:stdargv.obj
 0001:0001ee60       $$000000                   000000018001fe60     LIBCMT:strcmp.obj
 0001:0001f398       _cftoe2_l                  0000000180020398 f   LIBCMT:cvt.obj
 0001:0001f68c       _cftof2_l                  000000018002068c f   LIBCMT:cvt.obj
 0001:0001fe80       $$000000                   0000000180020e80     LIBCMT:jmpuwind.obj
 0001:000200a0       $$000000                   00000001800210a0     LIBCMT:fpsr.obj
 0001:00020100       $$000000                   0000000180021100     LIBCMT:memset.obj
 0001:000202a5       MsetTab                    00000001800212a5     LIBCMT:memset.obj
 0001:000217bc       write_char                 00000001800227bc f   LIBCMT:woutput.obj
 0001:000217f4       write_multi_char           00000001800227f4 f   LIBCMT:woutput.obj
 0001:00021848       write_string               0000000180022848 f   LIBCMT:woutput.obj
 0001:00022438       ?__crtLCMapStringA_stat@@YAHPEAUlocaleinfo_struct@@PEB_WKPEBDHPEADHHH@Z 0000000180023438 f   LIBCMT:a_map.obj
 0001:000227bc       ?__crtGetStringTypeA_stat@@YAHPEAUlocaleinfo_struct@@KPEBDHPEAGHH@Z 00000001800237bc f   LIBCMT:a_str.obj
 0001:00022a90       $$000000                   0000000180023a90     LIBCMT:memcmp.obj
 0001:00022b68       ?x_ismbbtype_l@@YAHPEAUlocaleinfo_struct@@IHH@Z 0000000180023b68 f   LIBCMT:ismbbyte.obj
 0001:00022c00       $$000000                   0000000180023c00     LIBCMT:handlers.obj
 0001:00023220       $$000000                   0000000180024220     LIBCMT:chkstk.obj
 0001:000260d0       _onexit$fin$0              00000001800270d0 f   LIBCMT:onexit.obj
 0001:000260e4       fprintf$fin$0              00000001800270e4 f   LIBCMT:fprintf.obj
 0001:000260fe       _CRT_INIT$fin$0            00000001800270fe f   LIBCMT:dllcrt0.obj
 0001:00026124       __DllMainCRTStartup$filt$0 0000000180027124 f   LIBCMT:dllcrt0.obj
 0001:0002616d       doexit$fin$0               000000018002716d f   LIBCMT:crt0dat.obj
 0001:00026191       flsall$fin$0               0000000180027191 f   LIBCMT:fflush.obj
 0001:000261b9       flsall$fin$1               00000001800271b9 f   LIBCMT:fflush.obj
 0001:000261d2       setvbuf$fin$0              00000001800271d2 f   LIBCMT:setvbuf.obj
 0001:000261ea       fwprintf$fin$0             00000001800271ea f   LIBCMT:fwprintf.obj
 0001:00026204       raise$fin$0                0000000180027204 f   LIBCMT:winsig.obj
 0001:00026222       _fcloseall$fin$0           0000000180027222 f   LIBCMT:closeall.obj
 0001:0002623b       _mtinitlocknum$fin$0       000000018002723b f   LIBCMT:mlock.obj
 0001:00026258       _ioinit$fin$0              0000000180027258 f   LIBCMT:ioinit.obj
 0001:00026273       __updatetmbcinfo$fin$0     0000000180027273 f   LIBCMT:mbctype.obj
 0001:00026273       _setmbcp$fin$0             0000000180027273 f   LIBCMT:mbctype.obj
 0001:0002628c       _initptd$fin$1             000000018002728c f   LIBCMT:tidtable.obj
 0001:0002628c       _freefls$fin$1             000000018002728c f   LIBCMT:tidtable.obj
 0001:000262a5       _initptd$fin$0             00000001800272a5 f   LIBCMT:tidtable.obj
 0001:000262a5       _freefls$fin$0             00000001800272a5 f   LIBCMT:tidtable.obj
 0001:000262be       _locterm$fin$0             00000001800272be f   LIBCMT:wsetloca.obj
 0001:000262be       __updatetlocinfo$fin$0     00000001800272be f   LIBCMT:wsetloca.obj
 0001:000262d7       __DestructExceptionObject$filt$0 00000001800272d7 f   LIBCMT:frame.obj
 0001:000262ef       ?fin$0@?0??_Type_info_dtor@type_info@@CAXPEAV1@@Z@4HA 00000001800272ef f   LIBCMT:typname.obj
 0001:00026310       _IsNonwritableInCurrentImage$filt$0 0000000180027310 f   LIBCMT:pesect.obj
 0001:00026330       _lseeki64$fin$0            0000000180027330 f   LIBCMT:write.obj
 0001:00026330       _write$fin$0               0000000180027330 f   LIBCMT:write.obj
 0001:00026347       fflush$fin$0               0000000180027347 f   LIBCMT:fclose.obj
 0001:00026347       fclose$fin$0               0000000180027347 f   LIBCMT:fclose.obj
 0001:0002635f       __lock_fhandle$fin$0       000000018002735f f   LIBCMT:osfinfo.obj
 0001:00026378       _commit$fin$0              0000000180027378 f   LIBCMT:close.obj
 0001:00026378       _close$fin$0               0000000180027378 f   LIBCMT:close.obj
 0002:00000230       piecewise_construct$initializer$ 0000000180028230     * CIL library *:* CIL module *
 0002:00000238       allocator_arg$initializer$ 0000000180028238     * CIL library *:* CIL module *
 0002:00000240       piecewise_construct$initializer$ 0000000180028240     * CIL library *:* CIL module *
 0002:00000248       allocator_arg$initializer$ 0000000180028248     * CIL library *:* CIL module *
 0002:00000250       piecewise_construct$initializer$ 0000000180028250     * CIL library *:* CIL module *
 0002:00000258       allocator_arg$initializer$ 0000000180028258     * CIL library *:* CIL module *
 0002:00000260       piecewise_construct$initializer$ 0000000180028260     * CIL library *:* CIL module *
 0002:00000268       allocator_arg$initializer$ 0000000180028268     * CIL library *:* CIL module *
 0002:00000270       piecewise_construct$initializer$ 0000000180028270     * CIL library *:* CIL module *
 0002:00000278       allocator_arg$initializer$ 0000000180028278     * CIL library *:* CIL module *
 0002:00000280       noncefn_callback$initializer$ 0000000180028280     * CIL library *:* CIL module *
 0002:00000288       piecewise_construct$initializer$ 0000000180028288     * CIL library *:* CIL module *
 0002:00000290       allocator_arg$initializer$ 0000000180028290     * CIL library *:* CIL module *
 0002:000002b0       pinit                      00000001800282b0     LIBCMT:onexit.obj
 0002:000002b8       pinit                      00000001800282b8     LIBCMT:_file.obj
 0002:000002c0       pinit                      00000001800282c0     LIBCMT:cpu_disp.obj
 0002:000002c8       pinit                      00000001800282c8     LIBCMT:mbctype.obj
 0002:000002e0       pterm                      00000001800282e0     LIBCMT:wsetloca.obj
 0002:000002e8       pterm                      00000001800282e8     LIBCMT:initcon.obj
 0002:000002f0       pterm                      00000001800282f0     LIBCMT:_file.obj
 0002:00000360       _Win_errtab                0000000180028360     libcpmt:syserror.obj
 0002:00000810       _Sys_errtab                0000000180028810     libcpmt:syserror.obj
 0002:00001910       ?ExceptionTemplate@?1??_CxxThrowException@@9@4UEHExceptionRecord@@B 0000000180029910     LIBCMT:throw.obj
 0002:00001998       GS_ExceptionPointers       0000000180029998     LIBCMT:gs_report.obj
 0002:00001a60       rterrs                     0000000180029a60     LIBCMT:crt0msg.obj
 0002:000025b0       _mb_locale_names           000000018002a5b0     LIBCMT:mbctype.obj
 0002:000029d0       _first_127char             000000018002a9d0     LIBCMT:wsetloca.obj
 0002:00006160       __real@433fffffffffffff    000000018002e160     LIBCMT:fpsr.obj
 0002:00006168       __real@c33fffffffffffff    000000018002e168     LIBCMT:fpsr.obj
 0002:00006ac0       tokenTable                 000000018002eac0     LIBCMT:undname.obj
 0002:00006b30       nameTable                  000000018002eb30     LIBCMT:undname.obj
 0002:00006db0       rttiTable                  000000018002edb0     LIBCMT:undname.obj
 0002:00007bd0       secp256k1_ge_const_g       000000018002fbd0     * CIL library *:* CIL module *
 0002:00007c24       ?zero@?1??secp256k1_rfc6979_hmac_sha256_initialize@@9@9 000000018002fc24     * CIL library *:* CIL module *
 0002:00007c25       ?zero@?1??secp256k1_rfc6979_hmac_sha256_generate@@9@9 000000018002fc25     * CIL library *:* CIL module *
 0002:00007c26       ?one@?1??secp256k1_rfc6979_hmac_sha256_initialize@@9@9 000000018002fc26     * CIL library *:* CIL module *
 0002:00007c30       secp256k1_ge_const_g       000000018002fc30     * CIL library *:* CIL module *
 0002:00007c88       ?nums_b32@?3??secp256k1_ecmult_gen_context_build@@9@9 000000018002fc88     * CIL library *:* CIL module *
 0002:00007cb0       secp256k1_ecdsa_const_p_minus_order 000000018002fcb0     * CIL library *:* CIL module *
 0002:00007cd8       ?fe_1@?1??secp256k1_gej_add_ge@@9@9 000000018002fcd8     * CIL library *:* CIL module *
 0002:00007d00       ?pad@?1??secp256k1_sha256_finalize@@9@9 000000018002fd00     * CIL library *:* CIL module *
 0002:00007d40       default_error_callback     000000018002fd40     * CIL library *:* CIL module *
 0002:00007d50       secp256k1_ecdsa_const_order_as_fe 000000018002fd50     * CIL library *:* CIL module *
 0002:00007d78       default_illegal_callback   000000018002fd78     * CIL library *:* CIL module *
 0002:00007d98       ?begin@?4??ec_privkey_export_der@@9@9 000000018002fd98     * CIL library *:* CIL module *
 0002:00007da8       ?begin@?3??ec_privkey_export_der@@9@9 000000018002fda8     * CIL library *:* CIL module *
 0002:00007db0       ?middle@?4??ec_privkey_export_der@@9@9 000000018002fdb0     * CIL library *:* CIL module *
 0002:00007e60       ?middle@?3??ec_privkey_export_der@@9@9 000000018002fe60     * CIL library *:* CIL module *
 0002:00007ef0       ?pad@?1??secp256k1_sha256_finalize@@YAXPEAUsecp256k1_sha256_t@@PEAE@Z@4QBEB 000000018002fef0     * CIL library *:* CIL module *
 0002:000084d0       $unwind$?FunctionCallbackWrapper@imp@Nan@@YAXAEBV?$FunctionCallbackInfo@VValue@v8@@@v8@@@Z 00000001800304d0     * CIL library *:* CIL module *
 0002:000084d0       $unwind$_setargv           00000001800304d0     * CIL library *:* CIL module *
 0002:000084e0       $unwind$?New@?$Factory@VFunctionTemplate@v8@@@imp@Nan@@SA?AV?$Local@VFunctionTemplate@v8@@@v8@@P6AXAEBV?$FunctionCallbackInfo@VValue@v8@@@3@@ZV?$Local@VValue@v8@@@5@V?$Local@VSignature@v8@@@5@@Z 00000001800304e0     * CIL library *:* CIL module *
 0002:000084f0       $chain$0$?New@?$Factory@VFunctionTemplate@v8@@@imp@Nan@@SA?AV?$Local@VFunctionTemplate@v8@@@v8@@P6AXAEBV?$FunctionCallbackInfo@VValue@v8@@@3@@ZV?$Local@VValue@v8@@@5@V?$Local@VSignature@v8@@@5@@Z 00000001800304f0     * CIL library *:* CIL module *
 0002:00008504       $chain$1$?New@?$Factory@VFunctionTemplate@v8@@@imp@Nan@@SA?AV?$Local@VFunctionTemplate@v8@@@v8@@P6AXAEBV?$FunctionCallbackInfo@VValue@v8@@@3@@ZV?$Local@VValue@v8@@@5@V?$Local@VSignature@v8@@@5@@Z 0000000180030504     * CIL library *:* CIL module *
 0002:00008518       $chain$2$?New@?$Factory@VFunctionTemplate@v8@@@imp@Nan@@SA?AV?$Local@VFunctionTemplate@v8@@@v8@@P6AXAEBV?$FunctionCallbackInfo@VValue@v8@@@3@@ZV?$Local@VValue@v8@@@5@V?$Local@VSignature@v8@@@5@@Z 0000000180030518     * CIL library *:* CIL module *
 0002:00008528       $chain$3$?New@?$Factory@VFunctionTemplate@v8@@@imp@Nan@@SA?AV?$Local@VFunctionTemplate@v8@@@v8@@P6AXAEBV?$FunctionCallbackInfo@VValue@v8@@@3@@ZV?$Local@VValue@v8@@@5@V?$Local@VSignature@v8@@@5@@Z 0000000180030528     * CIL library *:* CIL module *
 0002:00008538       $unwind$?Export@Nan@@YAXV?$Local@VObject@v8@@@v8@@PEBDP6AXAEBV?$FunctionCallbackInfo@VValue@v8@@@1@@Z@Z 0000000180030538     * CIL library *:* CIL module *
 0002:0000854c       $unwind$?Init@@YAXV?$Local@VObject@v8@@@v8@@@Z 000000018003054c     * CIL library *:* CIL module *
 0002:00008554       $unwind$?ThrowRangeError@Nan@@YAXPEBD@Z 0000000180030554     * CIL library *:* CIL module *
 0002:00008554       $unwind$?ThrowTypeError@Nan@@YAXPEBD@Z 0000000180030554     * CIL library *:* CIL module *
 0002:00008554       $unwind$?ThrowError@Nan@@YAXPEBD@Z 0000000180030554     * CIL library *:* CIL module *
 0002:0000855c       $unwind$secp256k1_scalar_set_b32 000000018003055c     * CIL library *:* CIL module *
 0002:0000855c       $unwind$?secp256k1_scalar_set_b32@@YAXPEAUsecp256k1_scalar@@PEBEPEAH@Z 000000018003055c     * CIL library *:* CIL module *
 0002:00008578       $unwind$?secp256k1_scalar_reduce_512@@YAXPEAUsecp256k1_scalar@@PEBI@Z 0000000180030578     * CIL library *:* CIL module *
 0002:00008578       $unwind$secp256k1_fe_sqr_inner 0000000180030578     * CIL library *:* CIL module *
 0002:00008578       $unwind$secp256k1_scalar_reduce_512 0000000180030578     * CIL library *:* CIL module *
 0002:00008578       $unwind$?secp256k1_fe_sqr_inner@@YAXPEAIPEBI@Z 0000000180030578     * CIL library *:* CIL module *
 0002:00008590       $unwind$secp256k1_scalar_mul_512 0000000180030590     * CIL library *:* CIL module *
 0002:00008590       $unwind$?secp256k1_scalar_mul_512@@YAXPEAIPEBUsecp256k1_scalar@@1@Z 0000000180030590     * CIL library *:* CIL module *
 0002:000085a8       $unwind$?secp256k1_scalar_sqr_512@@YAXPEAIPEBUsecp256k1_scalar@@@Z 00000001800305a8     * CIL library *:* CIL module *
 0002:000085a8       $unwind$secp256k1_scalar_sqr_512 00000001800305a8     * CIL library *:* CIL module *
 0002:000085c0       $unwind$?secp256k1_scalar_inverse@@YAXPEAUsecp256k1_scalar@@PEBU1@@Z 00000001800305c0     * CIL library *:* CIL module *
 0002:000085c0       $unwind$secp256k1_scalar_inverse 00000001800305c0     * CIL library *:* CIL module *
 0002:000085e4       $unwind$?privateKeyVerify@@YAXAEBV?$FunctionCallbackInfo@VValue@v8@@@Nan@@@Z 00000001800305e4     * CIL library *:* CIL module *
 0002:000085f4       $unwind$?privateKeyExport@@YAXAEBV?$FunctionCallbackInfo@VValue@v8@@@Nan@@@Z 00000001800305f4     * CIL library *:* CIL module *
 0002:0000860c       $unwind$?privateKeyImport@@YAXAEBV?$FunctionCallbackInfo@VValue@v8@@@Nan@@@Z 000000018003060c     * CIL library *:* CIL module *
 0002:00008620       $chain$0$?privateKeyImport@@YAXAEBV?$FunctionCallbackInfo@VValue@v8@@@Nan@@@Z 0000000180030620     * CIL library *:* CIL module *
 0002:00008634       $chain$1$?privateKeyImport@@YAXAEBV?$FunctionCallbackInfo@VValue@v8@@@Nan@@@Z 0000000180030634     * CIL library *:* CIL module *
 0002:00008644       $unwind$?privateKeyNegate@@YAXAEBV?$FunctionCallbackInfo@VValue@v8@@@Nan@@@Z 0000000180030644     * CIL library *:* CIL module *
 0002:00008644       $unwind$?privateKeyTweakAdd@@YAXAEBV?$FunctionCallbackInfo@VValue@v8@@@Nan@@@Z 0000000180030644     * CIL library *:* CIL module *
 0002:00008644       $unwind$?privateKeyTweakMul@@YAXAEBV?$FunctionCallbackInfo@VValue@v8@@@Nan@@@Z 0000000180030644     * CIL library *:* CIL module *
 0002:00008658       $unwind$?privateKeyModInverse@@YAXAEBV?$FunctionCallbackInfo@VValue@v8@@@Nan@@@Z 0000000180030658     * CIL library *:* CIL module *
 0002:00008674       $unwind$?publicKeyCreate@@YAXAEBV?$FunctionCallbackInfo@VValue@v8@@@Nan@@@Z 0000000180030674     * CIL library *:* CIL module *
 0002:00008690       $unwind$?publicKeyConvert@@YAXAEBV?$FunctionCallbackInfo@VValue@v8@@@Nan@@@Z 0000000180030690     * CIL library *:* CIL module *
 0002:000086b0       $unwind$?publicKeyVerify@@YAXAEBV?$FunctionCallbackInfo@VValue@v8@@@Nan@@@Z 00000001800306b0     * CIL library *:* CIL module *
 0002:000086bc       $chain$0$?publicKeyVerify@@YAXAEBV?$FunctionCallbackInfo@VValue@v8@@@Nan@@@Z 00000001800306bc     * CIL library *:* CIL module *
 0002:000086d0       $chain$1$?publicKeyVerify@@YAXAEBV?$FunctionCallbackInfo@VValue@v8@@@Nan@@@Z 00000001800306d0     * CIL library *:* CIL module *
 0002:000086e0       $unwind$?publicKeyTweakMul@@YAXAEBV?$FunctionCallbackInfo@VValue@v8@@@Nan@@@Z 00000001800306e0     * CIL library *:* CIL module *
 0002:000086e0       $unwind$?publicKeyTweakAdd@@YAXAEBV?$FunctionCallbackInfo@VValue@v8@@@Nan@@@Z 00000001800306e0     * CIL library *:* CIL module *
 0002:00008704       $unwind$?publicKeyCombine@@YAXAEBV?$FunctionCallbackInfo@VValue@v8@@@Nan@@@Z 0000000180030704     * CIL library *:* CIL module *
 0002:00008730       $unwind$?signatureExport@@YAXAEBV?$FunctionCallbackInfo@VValue@v8@@@Nan@@@Z 0000000180030730     * CIL library *:* CIL module *
 0002:00008730       $unwind$?signatureNormalize@@YAXAEBV?$FunctionCallbackInfo@VValue@v8@@@Nan@@@Z 0000000180030730     * CIL library *:* CIL module *
 0002:0000874c       $unwind$?signatureImport@@YAXAEBV?$FunctionCallbackInfo@VValue@v8@@@Nan@@@Z 000000018003074c     * CIL library *:* CIL module *
 0002:0000874c       $unwind$?signatureImportLax@@YAXAEBV?$FunctionCallbackInfo@VValue@v8@@@Nan@@@Z 000000018003074c     * CIL library *:* CIL module *
 0002:00008764       $chain$0$?signatureImport@@YAXAEBV?$FunctionCallbackInfo@VValue@v8@@@Nan@@@Z 0000000180030764     * CIL library *:* CIL module *
 0002:00008778       $chain$1$?signatureImport@@YAXAEBV?$FunctionCallbackInfo@VValue@v8@@@Nan@@@Z 0000000180030778     * CIL library *:* CIL module *
 0002:00008788       $chain$0$?signatureImportLax@@YAXAEBV?$FunctionCallbackInfo@VValue@v8@@@Nan@@@Z 0000000180030788     * CIL library *:* CIL module *
 0002:0000879c       $chain$1$?signatureImportLax@@YAXAEBV?$FunctionCallbackInfo@VValue@v8@@@Nan@@@Z 000000018003079c     * CIL library *:* CIL module *
 0002:000087ac       $unwind$?nonce_function_custom@@YAHPEAEPEBE11PEAXI@Z 00000001800307ac     * CIL library *:* CIL module *
 0002:000087cc       $unwind$?sign@@YAXAEBV?$FunctionCallbackInfo@VValue@v8@@@Nan@@@Z 00000001800307cc     * CIL library *:* CIL module *
 0002:000087f4       $chain$4$?sign@@YAXAEBV?$FunctionCallbackInfo@VValue@v8@@@Nan@@@Z 00000001800307f4     * CIL library *:* CIL module *
 0002:00008808       $chain$5$?sign@@YAXAEBV?$FunctionCallbackInfo@VValue@v8@@@Nan@@@Z 0000000180030808     * CIL library *:* CIL module *
 0002:00008818       $unwind$?verify@@YAXAEBV?$FunctionCallbackInfo@VValue@v8@@@Nan@@@Z 0000000180030818     * CIL library *:* CIL module *
 0002:00008830       $unwind$?recover@@YAXAEBV?$FunctionCallbackInfo@VValue@v8@@@Nan@@@Z 0000000180030830     * CIL library *:* CIL module *
 0002:00008854       $unwind$?secp256k1_fe_normalize@@YAXPEAUsecp256k1_fe@@@Z 0000000180030854     * CIL library *:* CIL module *
 0002:00008854       $unwind$?secp256k1_scalar_cond_negate@@YAHPEAUsecp256k1_scalar@@H@Z 0000000180030854     * CIL library *:* CIL module *
 0002:00008854       $unwind$secp256k1_fe_normalize 0000000180030854     * CIL library *:* CIL module *
 0002:00008870       $unwind$secp256k1_fe_normalize_weak 0000000180030870     * CIL library *:* CIL module *
 0002:00008870       $unwind$?secp256k1_fe_normalize_weak@@YAXPEAUsecp256k1_fe@@@Z 0000000180030870     * CIL library *:* CIL module *
 0002:00008884       $unwind$secp256k1_fe_set_b32 0000000180030884     * CIL library *:* CIL module *
 0002:00008884       $unwind$secp256k1_fe_normalizes_to_zero 0000000180030884     * CIL library *:* CIL module *
 0002:00008884       $unwind$?secp256k1_scalar_negate@@YAXPEAUsecp256k1_scalar@@PEBU1@@Z 0000000180030884     * CIL library *:* CIL module *
 0002:00008884       $unwind$?secp256k1_fe_normalizes_to_zero@@YAHPEAUsecp256k1_fe@@@Z 0000000180030884     * CIL library *:* CIL module *
 0002:0000889c       $unwind$?secp256k1_fe_normalizes_to_zero_var@@YAHPEAUsecp256k1_fe@@@Z 000000018003089c     * CIL library *:* CIL module *
 0002:0000889c       $unwind$secp256k1_fe_normalizes_to_zero_var 000000018003089c     * CIL library *:* CIL module *
 0002:000088b8       $unwind$?secp256k1_fe_mul_inner@@YAXPEAIPEBIPEIBI@Z 00000001800308b8     * CIL library *:* CIL module *
 0002:000088b8       $unwind$secp256k1_fe_mul_inner 00000001800308b8     * CIL library *:* CIL module *
 0002:000088d0       $unwind$?secp256k1_fe_cmov@@YAXPEAUsecp256k1_fe@@PEBU1@H@Z 00000001800308d0     * CIL library *:* CIL module *
 0002:000088d0       $unwind$secp256k1_der_read_len 00000001800308d0     * CIL library *:* CIL module *
 0002:000088d0       $unwind$__dtold            00000001800308d0     * CIL library *:* CIL module *
 0002:000088d0       $unwind$?secp256k1_scalar_cadd_bit@@YAXPEAUsecp256k1_scalar@@IH@Z 00000001800308d0     * CIL library *:* CIL module *
 0002:000088d0       $unwind$secp256k1_fe_cmov  00000001800308d0     * CIL library *:* CIL module *
 0002:000088d0       $unwind$secp256k1_ge_storage_cmov 00000001800308d0     * CIL library *:* CIL module *
 0002:000088d8       $unwind$secp256k1_fe_inv   00000001800308d8     * CIL library *:* CIL module *
 0002:000088d8       $unwind$?secp256k1_fe_inv@@YAXPEAUsecp256k1_fe@@PEBU1@@Z 00000001800308d8     * CIL library *:* CIL module *
 0002:000088f8       $unwind$?secp256k1_scalar_set_b32@@YAXPEAUsecp256k1_scalar@@PEBEPEAH@Z 00000001800308f8     * CIL library *:* CIL module *
 0002:00008910       $unwind$secp256k1_ge_set_gej 0000000180030910     * CIL library *:* CIL module *
 0002:00008910       $unwind$secp256k1_ge_set_gej_var 0000000180030910     * CIL library *:* CIL module *
 0002:00008910       $unwind$?secp256k1_ge_set_gej@@YAXPEAUsecp256k1_ge@@PEAUsecp256k1_gej@@@Z 0000000180030910     * CIL library *:* CIL module *
 0002:00008924       $unwind$secp256k1_gej_double_var 0000000180030924     * CIL library *:* CIL module *
 0002:00008924       $unwind$?secp256k1_gej_double_var@@YAXPEAUsecp256k1_gej@@PEBU1@PEAUsecp256k1_fe@@@Z 0000000180030924     * CIL library *:* CIL module *
 0002:00008934       $chain$2$?secp256k1_gej_double_var@@YAXPEAUsecp256k1_gej@@PEBU1@PEAUsecp256k1_fe@@@Z 0000000180030934     * CIL library *:* CIL module *
 0002:00008950       $chain$3$?secp256k1_gej_double_var@@YAXPEAUsecp256k1_gej@@PEBU1@PEAUsecp256k1_fe@@@Z 0000000180030950     * CIL library *:* CIL module *
 0002:00008960       $unwind$?secp256k1_gej_add_ge_var@@YAXPEAUsecp256k1_gej@@PEBU1@PEBUsecp256k1_ge@@PEAUsecp256k1_fe@@@Z 0000000180030960     * CIL library *:* CIL module *
 0002:00008960       $unwind$secp256k1_gej_add_ge_var 0000000180030960     * CIL library *:* CIL module *
 0002:00008978       $chain$1$?secp256k1_gej_add_ge_var@@YAXPEAUsecp256k1_gej@@PEBU1@PEBUsecp256k1_ge@@PEAUsecp256k1_fe@@@Z 0000000180030978     * CIL library *:* CIL module *
 0002:00008990       $chain$2$?secp256k1_gej_add_ge_var@@YAXPEAUsecp256k1_gej@@PEBU1@PEBUsecp256k1_ge@@PEAUsecp256k1_fe@@@Z 0000000180030990     * CIL library *:* CIL module *
 0002:000089a0       $unwind$secp256k1_gej_add_ge 00000001800309a0     * CIL library *:* CIL module *
 0002:000089a0       $unwind$?secp256k1_gej_add_ge@@YAXPEAUsecp256k1_gej@@PEBU1@PEBUsecp256k1_ge@@@Z 00000001800309a0     * CIL library *:* CIL module *
 0002:000089bc       $unwind$?secp256k1_ge_to_storage@@YAXPEAUsecp256k1_ge_storage@@PEBUsecp256k1_ge@@@Z 00000001800309bc     * CIL library *:* CIL module *
 0002:000089bc       $unwind$secp256k1_ge_to_storage 00000001800309bc     * CIL library *:* CIL module *
 0002:000089cc       $unwind$?secp256k1_ecmult_odd_multiples_table@@YAXHPEAUsecp256k1_gej@@PEAUsecp256k1_fe@@PEBU1@@Z 00000001800309cc     * CIL library *:* CIL module *
 0002:000089e8       $unwind$?secp256k1_wnaf_const@@YAHPEAHUsecp256k1_scalar@@H@Z 00000001800309e8     * CIL library *:* CIL module *
 0002:00008a00       $unwind$?secp256k1_ecmult_const@@YAXPEAUsecp256k1_gej@@PEBUsecp256k1_ge@@PEBUsecp256k1_scalar@@@Z 0000000180030a00     * CIL library *:* CIL module *
 0002:00008a24       $unwind$?secp256k1_sha256_transform@@YAXPEAIPEBI@Z 0000000180030a24     * CIL library *:* CIL module *
 0002:00008a24       $unwind$secp256k1_sha256_transform 0000000180030a24     * CIL library *:* CIL module *
 0002:00008a3c       $unwind$secp256k1_sha256_write 0000000180030a3c     * CIL library *:* CIL module *
 0002:00008a3c       $unwind$?secp256k1_sha256_write@@YAXPEAUsecp256k1_sha256_t@@PEBE_K@Z 0000000180030a3c     * CIL library *:* CIL module *
 0002:00008a50       $chain$0$?secp256k1_sha256_write@@YAXPEAUsecp256k1_sha256_t@@PEBE_K@Z 0000000180030a50     * CIL library *:* CIL module *
 0002:00008a50       $chain$0$secp256k1_sha256_write 0000000180030a50     * CIL library *:* CIL module *
 0002:00008a64       $chain$1$secp256k1_sha256_write 0000000180030a64     * CIL library *:* CIL module *
 0002:00008a64       $chain$1$?secp256k1_sha256_write@@YAXPEAUsecp256k1_sha256_t@@PEBE_K@Z 0000000180030a64     * CIL library *:* CIL module *
 0002:00008a74       $unwind$secp256k1_sha256_finalize 0000000180030a74     * CIL library *:* CIL module *
 0002:00008a74       $unwind$?secp256k1_sha256_finalize@@YAXPEAUsecp256k1_sha256_t@@PEAE@Z 0000000180030a74     * CIL library *:* CIL module *
 0002:00008a8c       $unwind$?ecdh@@YAXAEBV?$FunctionCallbackInfo@VValue@v8@@@Nan@@@Z 0000000180030a8c     * CIL library *:* CIL module *
 0002:00008ab0       $unwind$?ecdhUnsafe@@YAXAEBV?$FunctionCallbackInfo@VValue@v8@@@Nan@@@Z 0000000180030ab0     * CIL library *:* CIL module *
 0002:00008ad4       $unwind$secp256k1_fe_normalize_var 0000000180030ad4     * CIL library *:* CIL module *
 0002:00008af0       $unwind$secp256k1_fe_sqrt  0000000180030af0     * CIL library *:* CIL module *
 0002:00008b0c       $unwind$secp256k1_fe_inv_all_var 0000000180030b0c     * CIL library *:* CIL module *
 0002:00008b18       $chain$2$secp256k1_fe_inv_all_var 0000000180030b18     * CIL library *:* CIL module *
 0002:00008b34       $chain$3$secp256k1_fe_inv_all_var 0000000180030b34     * CIL library *:* CIL module *
 0002:00008b48       $chain$4$secp256k1_fe_inv_all_var 0000000180030b48     * CIL library *:* CIL module *
 0002:00008b58       $chain$5$secp256k1_fe_inv_all_var 0000000180030b58     * CIL library *:* CIL module *
 0002:00008b68       $unwind$secp256k1_scalar_add 0000000180030b68     * CIL library *:* CIL module *
 0002:00008b68       $unwind$__freeCrtMemory    0000000180030b68     * CIL library *:* CIL module *
 0002:00008b68       $unwind$_fclose_nolock     0000000180030b68     * CIL library *:* CIL module *
 0002:00008b68       $unwind$__initstdio        0000000180030b68     * CIL library *:* CIL module *
 0002:00008b68       $unwind$_initp_misc_cfltcvt_tab 0000000180030b68     * CIL library *:* CIL module *
 0002:00008b68       $unwind$_updatetlocinfoEx_nolock 0000000180030b68     * CIL library *:* CIL module *
 0002:00008b68       $unwind$??_Gtype_info@@UEAAPEAXI@Z 0000000180030b68     * CIL library *:* CIL module *
 0002:00008b68       $unwind$_getptd_noexit     0000000180030b68     * CIL library *:* CIL module *
 0002:00008b68       $unwind$_lock              0000000180030b68     * CIL library *:* CIL module *
 0002:00008b68       $unwind$??4exception@std@@QEAAAEAV01@AEBV01@@Z 0000000180030b68     * CIL library *:* CIL module *
 0002:00008b68       $unwind$_initterm_e        0000000180030b68     * CIL library *:* CIL module *
 0002:00008b68       $unwind$??_Gbad_alloc@std@@UEAAPEAXI@Z 0000000180030b68     * CIL library *:* CIL module *
 0002:00008b68       $unwind$??_Gexception@std@@UEAAPEAXI@Z 0000000180030b68     * CIL library *:* CIL module *
 0002:00008b68       $unwind$_fptostr           0000000180030b68     * CIL library *:* CIL module *
 0002:00008b68       $unwind$_RTC_Initialize    0000000180030b68     * CIL library *:* CIL module *
 0002:00008b68       $unwind$_dosmaperr         0000000180030b68     * CIL library *:* CIL module *
 0002:00008b68       $unwind$_calloc_impl       0000000180030b68     * CIL library *:* CIL module *
 0002:00008b68       $unwind$_close_nolock      0000000180030b68     * CIL library *:* CIL module *
 0002:00008b68       $unwind$_RTC_Terminate     0000000180030b68     * CIL library *:* CIL module *
 0002:00008b68       $unwind$secp256k1_context_create 0000000180030b68     * CIL library *:* CIL module *
 0002:00008b74       $unwind$secp256k1_ge_set_all_gej_var 0000000180030b74     * CIL library *:* CIL module *
 0002:00008b90       $unwind$secp256k1_ge_set_table_gej_var 0000000180030b90     * CIL library *:* CIL module *
 0002:00008bac       $unwind$secp256k1_gej_eq_x_var 0000000180030bac     * CIL library *:* CIL module *
 0002:00008bc0       $unwind$_freebuf           0000000180030bc0     * CIL library *:* CIL module *
 0002:00008bc0       $unwind$_amsg_exit         0000000180030bc0     * CIL library *:* CIL module *
 0002:00008bc0       $unwind$??0_LocaleUpdate@@QEAA@PEAUlocaleinfo_struct@@@Z 0000000180030bc0     * CIL library *:* CIL module *
 0002:00008bc0       $unwind$_getbuf            0000000180030bc0     * CIL library *:* CIL module *
 0002:00008bc0       $unwind$secp256k1_gej_neg  0000000180030bc0     * CIL library *:* CIL module *
 0002:00008bc0       $unwind$_lock_file2        0000000180030bc0     * CIL library *:* CIL module *
 0002:00008bc0       $unwind$_lock_file         0000000180030bc0     * CIL library *:* CIL module *
 0002:00008bc0       $unwind$ec_privkey_import_der 0000000180030bc0     * CIL library *:* CIL module *
 0002:00008bc0       $unwind$?load_exe_hook@@YAP6A_JXZIPEAUDelayLoadInfo@@@Z 0000000180030bc0     * CIL library *:* CIL module *
 0002:00008bc0       $unwind$__crtIsPackagedApp 0000000180030bc0     * CIL library *:* CIL module *
 0002:00008bc0       $unwind$write_char         0000000180030bc0     * CIL library *:* CIL module *
 0002:00008bc0       $unwind$__onexitinit       0000000180030bc0     * CIL library *:* CIL module *
 0002:00008bc0       $unwind$?_Tidy@exception@std@@AEAAXXZ 0000000180030bc0     * CIL library *:* CIL module *
 0002:00008bc0       $unwind$_fflush_nolock     0000000180030bc0     * CIL library *:* CIL module *
 0002:00008bc0       $unwind$write_char         0000000180030bc0     * CIL library *:* CIL module *
 0002:00008bc0       $unwind$__crtLoadWinApiPointers 0000000180030bc0     * CIL library *:* CIL module *
 0002:00008bc0       $unwind$_init_pointers     0000000180030bc0     * CIL library *:* CIL module *
 0002:00008bc0       $unwind$__raise_securityfailure 0000000180030bc0     * CIL library *:* CIL module *
 0002:00008bc0       $unwind$default_illegal_callback_fn 0000000180030bc0     * CIL library *:* CIL module *
 0002:00008bc0       $unwind$_cinit             0000000180030bc0     * CIL library *:* CIL module *
 0002:00008bc0       $unwind$_getptd            0000000180030bc0     * CIL library *:* CIL module *
 0002:00008bc0       $unwind$default_error_callback_fn 0000000180030bc0     * CIL library *:* CIL module *
 0002:00008bc0       $unwind$_callnewh          0000000180030bc0     * CIL library *:* CIL module *
 0002:00008bc0       $unwind$__crtUnhandledException 0000000180030bc0     * CIL library *:* CIL module *
 0002:00008bc0       $unwind$??0bad_alloc@std@@QEAA@AEBV01@@Z 0000000180030bc0     * CIL library *:* CIL module *
 0002:00008bc0       $unwind$__crtCorExitProcess 0000000180030bc0     * CIL library *:* CIL module *
 0002:00008bc0       $unwind$wcsncpy_s          0000000180030bc0     * CIL library *:* CIL module *
 0002:00008bc0       $unwind$__crtTerminateProcess 0000000180030bc0     * CIL library *:* CIL module *
 0002:00008bc0       $unwind$__GSHandlerCheckCommon 0000000180030bc0     * CIL library *:* CIL module *
 0002:00008bc0       $unwind$_mtinit            0000000180030bc0     * CIL library *:* CIL module *
 0002:00008bc0       $unwind$__crtExitProcess   0000000180030bc0     * CIL library *:* CIL module *
 0002:00008bc0       $unwind$wcsncat_s          0000000180030bc0     * CIL library *:* CIL module *
 0002:00008bc0       $unwind$strcpy_s           0000000180030bc0     * CIL library *:* CIL module *
 0002:00008bc0       $unwind$wcscat_s           0000000180030bc0     * CIL library *:* CIL module *
 0002:00008bc0       $unwind$_freeptd           0000000180030bc0     * CIL library *:* CIL module *
 0002:00008bc0       $unwind$wcscpy_s           0000000180030bc0     * CIL library *:* CIL module *
 0002:00008bc0       $unwind$??0exception@std@@QEAA@AEBV01@@Z 0000000180030bc0     * CIL library *:* CIL module *
 0002:00008bc8       $unwind$secp256k1_ge_is_valid_var 0000000180030bc8     * CIL library *:* CIL module *
 0002:00008bdc       $chain$2$secp256k1_gej_double_var 0000000180030bdc     * CIL library *:* CIL module *
 0002:00008bf8       $chain$3$secp256k1_gej_double_var 0000000180030bf8     * CIL library *:* CIL module *
 0002:00008c08       $unwind$secp256k1_gej_add_var 0000000180030c08     * CIL library *:* CIL module *
 0002:00008c24       $chain$3$secp256k1_gej_add_var 0000000180030c24     * CIL library *:* CIL module *
 0002:00008c38       $chain$1$secp256k1_gej_add_ge_var 0000000180030c38     * CIL library *:* CIL module *
 0002:00008c50       $chain$2$secp256k1_gej_add_ge_var 0000000180030c50     * CIL library *:* CIL module *
 0002:00008c60       $unwind$secp256k1_gej_add_zinv_var 0000000180030c60     * CIL library *:* CIL module *
 0002:00008c80       $unwind$secp256k1_ecmult_odd_multiples_table 0000000180030c80     * CIL library *:* CIL module *
 0002:00008c9c       $unwind$write_string       0000000180030c9c     * CIL library *:* CIL module *
 0002:00008c9c       $unwind$write_string       0000000180030c9c     * CIL library *:* CIL module *
 0002:00008c9c       $unwind$secp256k1_ecmult_odd_multiples_table_storage_var 0000000180030c9c     * CIL library *:* CIL module *
 0002:00008cb4       $unwind$secp256k1_ecmult_context_build 0000000180030cb4     * CIL library *:* CIL module *
 0002:00008cc4       $chain$0$secp256k1_ecmult_context_build 0000000180030cc4     * CIL library *:* CIL module *
 0002:00008cd8       $chain$1$secp256k1_ecmult_context_build 0000000180030cd8     * CIL library *:* CIL module *
 0002:00008ce8       $unwind$secp256k1_ecmult_wnaf 0000000180030ce8     * CIL library *:* CIL module *
 0002:00008d04       $chain$0$secp256k1_ecmult_wnaf 0000000180030d04     * CIL library *:* CIL module *
 0002:00008d18       $unwind$secp256k1_ecmult   0000000180030d18     * CIL library *:* CIL module *
 0002:00008d3c       $unwind$secp256k1_hmac_sha256_initialize 0000000180030d3c     * CIL library *:* CIL module *
 0002:00008d54       $chain$2$secp256k1_hmac_sha256_initialize 0000000180030d54     * CIL library *:* CIL module *
 0002:00008d70       $chain$3$secp256k1_hmac_sha256_initialize 0000000180030d70     * CIL library *:* CIL module *
 0002:00008d84       $chain$4$secp256k1_hmac_sha256_initialize 0000000180030d84     * CIL library *:* CIL module *
 0002:00008d94       $chain$5$secp256k1_hmac_sha256_initialize 0000000180030d94     * CIL library *:* CIL module *
 0002:00008da4       $unwind$secp256k1_rfc6979_hmac_sha256_initialize 0000000180030da4     * CIL library *:* CIL module *
 0002:00008dc0       $unwind$secp256k1_rfc6979_hmac_sha256_generate 0000000180030dc0     * CIL library *:* CIL module *
 0002:00008de4       $unwind$secp256k1_ecmult_gen_context_build 0000000180030de4     * CIL library *:* CIL module *
 0002:00008dfc       $chain$1$secp256k1_ecmult_gen_context_build 0000000180030dfc     * CIL library *:* CIL module *
 0002:00008e14       $chain$6$secp256k1_ecmult_gen_context_build 0000000180030e14     * CIL library *:* CIL module *
 0002:00008e38       $chain$7$secp256k1_ecmult_gen_context_build 0000000180030e38     * CIL library *:* CIL module *
 0002:00008e4c       $chain$8$secp256k1_ecmult_gen_context_build 0000000180030e4c     * CIL library *:* CIL module *
 0002:00008e5c       $unwind$secp256k1_ecmult_gen 0000000180030e5c     * CIL library *:* CIL module *
 0002:00008e80       $unwind$secp256k1_ecmult_gen_blind 0000000180030e80     * CIL library *:* CIL module *
 0002:00008ea4       $unwind$secp256k1_der_parse_integer 0000000180030ea4     * CIL library *:* CIL module *
 0002:00008ebc       $chain$0$secp256k1_der_parse_integer 0000000180030ebc     * CIL library *:* CIL module *
 0002:00008ed0       $chain$1$secp256k1_der_parse_integer 0000000180030ed0     * CIL library *:* CIL module *
 0002:00008ed0       $chain$3$secp256k1_der_parse_integer 0000000180030ed0     * CIL library *:* CIL module *
 0002:00008ee0       $chain$2$secp256k1_der_parse_integer 0000000180030ee0     * CIL library *:* CIL module *
 0002:00008ef4       $unwind$secp256k1_ecdsa_sig_serialize 0000000180030ef4     * CIL library *:* CIL module *
 0002:00008f0c       $unwind$secp256k1_ecdsa_sig_verify 0000000180030f0c     * CIL library *:* CIL module *
 0002:00008f28       $unwind$secp256k1_eckey_pubkey_parse 0000000180030f28     * CIL library *:* CIL module *
 0002:00008f44       $unwind$secp256k1_ecdsa_signature_serialize_compact 0000000180030f44     * CIL library *:* CIL module *
 0002:00008f44       $unwind$secp256k1_pubkey_load 0000000180030f44     * CIL library *:* CIL module *
 0002:00008f4c       $unwind$secp256k1_ec_pubkey_parse 0000000180030f4c     * CIL library *:* CIL module *
 0002:00008f60       $unwind$secp256k1_ec_pubkey_serialize 0000000180030f60     * CIL library *:* CIL module *
 0002:00008f7c       $chain$1$secp256k1_ec_pubkey_serialize 0000000180030f7c     * CIL library *:* CIL module *
 0002:00008f94       $chain$2$secp256k1_ec_pubkey_serialize 0000000180030f94     * CIL library *:* CIL module *
 0002:00008fa4       $unwind$secp256k1_ecdsa_signature_parse_der 0000000180030fa4     * CIL library *:* CIL module *
 0002:00008fac       $chain$0$secp256k1_ecdsa_signature_parse_der 0000000180030fac     * CIL library *:* CIL module *
 0002:00008fc0       $chain$2$secp256k1_ecdsa_signature_parse_der 0000000180030fc0     * CIL library *:* CIL module *
 0002:00008fd4       $unwind$secp256k1_ecdsa_signature_parse_compact 0000000180030fd4     * CIL library *:* CIL module *
 0002:00008fe8       $unwind$secp256k1_ecdsa_verify 0000000180030fe8     * CIL library *:* CIL module *
 0002:00009004       $unwind$nonce_function_rfc6979 0000000180031004     * CIL library *:* CIL module *
 0002:0000901c       $unwind$__initconout       000000018003101c     * CIL library *:* CIL module *
 0002:0000901c       $unwind$secp256k1_ec_seckey_verify 000000018003101c     * CIL library *:* CIL module *
 0002:0000901c       $unwind$_cfltcvt           000000018003101c     * CIL library *:* CIL module *
 0002:00009024       $unwind$secp256k1_ec_pubkey_create 0000000180031024     * CIL library *:* CIL module *
 0002:00009030       $chain$0$secp256k1_ec_pubkey_create 0000000180031030     * CIL library *:* CIL module *
 0002:00009044       $chain$2$secp256k1_ec_pubkey_create 0000000180031044     * CIL library *:* CIL module *
 0002:00009058       $chain$5$secp256k1_ec_pubkey_create 0000000180031058     * CIL library *:* CIL module *
 0002:00009070       $unwind$secp256k1_ec_privkey_negate 0000000180031070     * CIL library *:* CIL module *
 0002:00009088       $unwind$secp256k1_ec_privkey_tweak_add 0000000180031088     * CIL library *:* CIL module *
 0002:00009094       $chain$4$secp256k1_ec_privkey_tweak_add 0000000180031094     * CIL library *:* CIL module *
 0002:000090b8       $chain$5$secp256k1_ec_privkey_tweak_add 00000001800310b8     * CIL library *:* CIL module *
 0002:000090c8       $unwind$secp256k1_ec_pubkey_tweak_add 00000001800310c8     * CIL library *:* CIL module *
 0002:000090c8       $unwind$secp256k1_ec_pubkey_tweak_mul 00000001800310c8     * CIL library *:* CIL module *
 0002:000090e4       $chain$0$secp256k1_ec_pubkey_tweak_add 00000001800310e4     * CIL library *:* CIL module *
 0002:000090f8       $chain$1$secp256k1_ec_pubkey_tweak_add 00000001800310f8     * CIL library *:* CIL module *
 0002:00009108       $unwind$secp256k1_ec_privkey_tweak_mul 0000000180031108     * CIL library *:* CIL module *
 0002:00009118       $chain$0$secp256k1_ec_pubkey_tweak_mul 0000000180031118     * CIL library *:* CIL module *
 0002:0000912c       $chain$1$secp256k1_ec_pubkey_tweak_mul 000000018003112c     * CIL library *:* CIL module *
 0002:0000913c       $unwind$secp256k1_ec_pubkey_combine 000000018003113c     * CIL library *:* CIL module *
 0002:00009158       $chain$1$secp256k1_ec_pubkey_combine 0000000180031158     * CIL library *:* CIL module *
 0002:00009170       $chain$2$secp256k1_ec_pubkey_combine 0000000180031170     * CIL library *:* CIL module *
 0002:00009184       $chain$3$secp256k1_ec_pubkey_combine 0000000180031184     * CIL library *:* CIL module *
 0002:00009194       $unwind$secp256k1_ecdsa_recoverable_signature_parse_compact 0000000180031194     * CIL library *:* CIL module *
 0002:000091a4       $chain$0$secp256k1_ecdsa_recoverable_signature_parse_compact 00000001800311a4     * CIL library *:* CIL module *
 0002:000091b8       $chain$2$secp256k1_ecdsa_recoverable_signature_parse_compact 00000001800311b8     * CIL library *:* CIL module *
 0002:000091cc       $chain$3$secp256k1_ecdsa_recoverable_signature_parse_compact 00000001800311cc     * CIL library *:* CIL module *
 0002:000091dc       $unwind$secp256k1_ecdsa_sig_recover 00000001800311dc     * CIL library *:* CIL module *
 0002:000091f8       $chain$1$secp256k1_ecdsa_sig_recover 00000001800311f8     * CIL library *:* CIL module *
 0002:00009210       $chain$2$secp256k1_ecdsa_sig_recover 0000000180031210     * CIL library *:* CIL module *
 0002:00009220       $chain$3$secp256k1_ecdsa_sig_recover 0000000180031220     * CIL library *:* CIL module *
 0002:00009238       $chain$4$secp256k1_ecdsa_sig_recover 0000000180031238     * CIL library *:* CIL module *
 0002:0000924c       $chain$5$secp256k1_ecdsa_sig_recover 000000018003124c     * CIL library *:* CIL module *
 0002:0000925c       $unwind$secp256k1_ecdsa_sign_recoverable 000000018003125c     * CIL library *:* CIL module *
 0002:0000927c       $chain$0$secp256k1_ecdsa_sign_recoverable 000000018003127c     * CIL library *:* CIL module *
 0002:00009290       $chain$1$secp256k1_ecdsa_sign_recoverable 0000000180031290     * CIL library *:* CIL module *
 0002:000092a0       $unwind$secp256k1_ecdsa_recover 00000001800312a0     * CIL library *:* CIL module *
 0002:000092b4       $unwind$ecdsa_signature_parse_der_lax 00000001800312b4     * CIL library *:* CIL module *
 0002:000092d0       $chain$0$ecdsa_signature_parse_der_lax 00000001800312d0     * CIL library *:* CIL module *
 0002:000092e4       $chain$1$ecdsa_signature_parse_der_lax 00000001800312e4     * CIL library *:* CIL module *
 0002:000092f8       $chain$2$ecdsa_signature_parse_der_lax 00000001800312f8     * CIL library *:* CIL module *
 0002:00009308       $chain$3$ecdsa_signature_parse_der_lax 0000000180031308     * CIL library *:* CIL module *
 0002:00009318       $unwind$ec_privkey_export_der 0000000180031318     * CIL library *:* CIL module *
 0002:0000932c       xdata                      000000018003132c     node:node.exe
 0002:00009338       $xdatasym                  0000000180031338     LIBCMT:amdsecgs.obj
 0002:00009340       $xdatasym                  0000000180031340     LIBCMT:memcpy.obj
 0002:00009344       $unwind$_onexit            0000000180031344     LIBCMT:onexit.obj
 0002:00009374       $unwind$swprintf           0000000180031374     LIBCMT:wassert.obj
 0002:0000937c       $unwind$_wassert           000000018003137c     LIBCMT:wassert.obj
 0002:000093a0       $unwind$__free_lconv_num   00000001800313a0     LIBCMT:free.obj
 0002:000093a0       $unwind$free               00000001800313a0     LIBCMT:free.obj
 0002:000093a8       $unwind$fprintf            00000001800313a8     LIBCMT:fprintf.obj
 0002:000093d0       $unwind$_freefls$fin$1     00000001800313d0     LIBCMT:fprintf.obj
 0002:000093d0       $unwind$flsall$fin$1       00000001800313d0     LIBCMT:fprintf.obj
 0002:000093d0       $unwind$fprintf$fin$0      00000001800313d0     LIBCMT:fprintf.obj
 0002:000093d0       $unwind$_locterm$fin$0     00000001800313d0     LIBCMT:fprintf.obj
 0002:000093d0       $unwind$flsall$fin$0       00000001800313d0     LIBCMT:fprintf.obj
 0002:000093d0       $unwind$_setmbcp$fin$0     00000001800313d0     LIBCMT:fprintf.obj
 0002:000093d0       $unwind$doexit$fin$0       00000001800313d0     LIBCMT:fprintf.obj
 0002:000093d0       $unwind$?fin$0@?0??_Type_info_dtor@type_info@@CAXPEAV1@@Z@4HA 00000001800313d0     LIBCMT:fprintf.obj
 0002:000093d0       $unwind$_freefls$fin$0     00000001800313d0     LIBCMT:fprintf.obj
 0002:000093d0       $unwind$_commit$fin$0      00000001800313d0     LIBCMT:fprintf.obj
 0002:000093d0       $unwind$_onexit$fin$0      00000001800313d0     LIBCMT:fprintf.obj
 0002:000093d0       $unwind$__updatetlocinfo$fin$0 00000001800313d0     LIBCMT:fprintf.obj
 0002:000093d0       $unwind$fflush$fin$0       00000001800313d0     LIBCMT:fprintf.obj
 0002:000093d0       $unwind$_CRT_INIT$fin$0    00000001800313d0     LIBCMT:fprintf.obj
 0002:000093d0       $unwind$_ioinit$fin$0      00000001800313d0     LIBCMT:fprintf.obj
 0002:000093d0       $unwind$_IsNonwritableInCurrentImage$filt$0 00000001800313d0     LIBCMT:fprintf.obj
 0002:000093d0       $unwind$__DllMainCRTStartup$filt$0 00000001800313d0     LIBCMT:fprintf.obj
 0002:000093d0       $unwind$_lseeki64$fin$0    00000001800313d0     LIBCMT:fprintf.obj
 0002:000093d0       $unwind$_mtinitlocknum$fin$0 00000001800313d0     LIBCMT:fprintf.obj
 0002:000093d0       $unwind$__updatetmbcinfo$fin$0 00000001800313d0     LIBCMT:fprintf.obj
 0002:000093d0       $unwind$fwprintf$fin$0     00000001800313d0     LIBCMT:fprintf.obj
 0002:000093d0       $unwind$__lock_fhandle$fin$0 00000001800313d0     LIBCMT:fprintf.obj
 0002:000093d0       $unwind$__DestructExceptionObject$filt$0 00000001800313d0     LIBCMT:fprintf.obj
 0002:000093d0       $unwind$fclose$fin$0       00000001800313d0     LIBCMT:fprintf.obj
 0002:000093d0       $unwind$_initptd$fin$0     00000001800313d0     LIBCMT:fprintf.obj
 0002:000093d0       $unwind$_write$fin$0       00000001800313d0     LIBCMT:fprintf.obj
 0002:000093d0       $unwind$raise$fin$0        00000001800313d0     LIBCMT:fprintf.obj
 0002:000093d0       $unwind$setvbuf$fin$0      00000001800313d0     LIBCMT:fprintf.obj
 0002:000093d0       $unwind$_close$fin$0       00000001800313d0     LIBCMT:fprintf.obj
 0002:000093d0       $unwind$_initptd$fin$1     00000001800313d0     LIBCMT:fprintf.obj
 0002:000093d0       $unwind$_fcloseall$fin$0   00000001800313d0     LIBCMT:fprintf.obj
 0002:000093d8       $unwind$_CRT_INIT          00000001800313d8     LIBCMT:dllcrt0.obj
 0002:000093f8       $unwind$__DllMainCRTStartup 00000001800313f8     LIBCMT:dllcrt0.obj
 0002:00009420       $xdatasym                  0000000180031420     LIBCMT:strlen.obj
 0002:00009424       $unwind$_CxxThrowException 0000000180031424     LIBCMT:throw.obj
 0002:00009434       $unwind$?_Copy_str@exception@std@@AEAAXPEBD@Z 0000000180031434     LIBCMT:stdexcpt.obj
 0002:00009444       $unwind$__isa_available_init 0000000180031444     LIBCMT:cpu_disp.obj
 0002:00009458       $unwind$doexit             0000000180031458     LIBCMT:crt0dat.obj
 0002:00009488       $unwind$_realloc_crt       0000000180031488     LIBCMT:crtheap.obj
 0002:00009488       $unwind$GetTableIndexFromLocaleName 0000000180031488     LIBCMT:crtheap.obj
 0002:00009488       $unwind$_calloc_crt        0000000180031488     LIBCMT:crtheap.obj
 0002:00009488       $unwind$_malloc_crt        0000000180031488     LIBCMT:crtheap.obj
 0002:000094a0       $unwind$__C_specific_handler 00000001800314a0     LIBCMT:chandler.obj
 0002:000094bc       $unwind$_call_reportfault  00000001800314bc     LIBCMT:invarg.obj
 0002:000094dc       $unwind$xtow_s             00000001800314dc     LIBCMT:xtows.obj
 0002:000094dc       $unwind$_mtdeletelocks     00000001800314dc     LIBCMT:xtows.obj
 0002:000094dc       $unwind$_initterm          00000001800314dc     LIBCMT:xtows.obj
 0002:000094dc       $unwind$_XcptFilter        00000001800314dc     LIBCMT:xtows.obj
 0002:000094dc       $unwind$?setSBCS@@YAXPEAUthreadmbcinfostruct@@@Z 00000001800314dc     LIBCMT:xtows.obj
 0002:000094dc       $unwind$__freetlocinfo     00000001800314dc     LIBCMT:xtows.obj
 0002:000094f0       $unwind$fflush             00000001800314f0     LIBCMT:fflush.obj
 0002:00009514       $unwind$flsall             0000000180031514     LIBCMT:fflush.obj
 0002:00009554       $unwind$setvbuf            0000000180031554     LIBCMT:setvbuf.obj
 0002:00009580       $unwind$fwprintf           0000000180031580     LIBCMT:fwprintf.obj
 0002:000095a4       $unwind$_vswprintf_helper  00000001800315a4     LIBCMT:vswprnc.obj
 0002:000095bc       $unwind$raise              00000001800315bc     LIBCMT:winsig.obj
 0002:000095ec       $unwind$__crtMessageBoxW   00000001800315ec     LIBCMT:crtmboxw.obj
 0002:00009608       $unwind$_NMSG_WRITE        0000000180031608     LIBCMT:crt0msg.obj
 0002:0000962c       $unwind$_fcloseall         000000018003162c     LIBCMT:closeall.obj
 0002:00009654       $unwind$_mtinitlocknum     0000000180031654     LIBCMT:mlock.obj
 0002:0000967c       $unwind$_mtinitlocks       000000018003167c     LIBCMT:mlock.obj
 0002:0000967c       $unwind$_lseeki64_nolock   000000018003167c     LIBCMT:mlock.obj
 0002:0000967c       $unwind$memcpy_s           000000018003167c     LIBCMT:mlock.obj
 0002:0000967c       $unwind$malloc             000000018003167c     LIBCMT:mlock.obj
 0002:0000967c       $unwind$_ioterm            000000018003167c     LIBCMT:mlock.obj
 0002:0000967c       $unwind$realloc            000000018003167c     LIBCMT:mlock.obj
 0002:0000967c       $unwind$_DllMainCRTStartup 000000018003167c     LIBCMT:mlock.obj
 0002:0000967c       $unwind$_flush             000000018003167c     LIBCMT:mlock.obj
 0002:0000968c       $unwind$_ftbuf             000000018003168c     LIBCMT:_sftbuf.obj
 0002:00009694       $unwind$_output_l          0000000180031694     LIBCMT:output.obj
 0002:000096b8       $unwind$write_multi_char   00000001800316b8     LIBCMT:output.obj
 0002:000096b8       $unwind$write_multi_char   00000001800316b8     LIBCMT:output.obj
 0002:000096cc       $unwind$_ioinit            00000001800316cc     LIBCMT:ioinit.obj
 0002:00009714       $unwind$__updatetlocinfo   0000000180031714     LIBCMT:localref.obj
 0002:00009734       $unwind$__updatetmbcinfo   0000000180031734     LIBCMT:mbctype.obj
 0002:00009758       $unwind$_setmbcp           0000000180031758     LIBCMT:mbctype.obj
 0002:00009788       $unwind$__crtInitializeCriticalSectionEx 0000000180031788     LIBCMT:mbctype.obj
 0002:00009788       $unwind$_FF_MSGBANNER      0000000180031788     LIBCMT:mbctype.obj
 0002:00009788       $unwind$__initmbctable     0000000180031788     LIBCMT:mbctype.obj
 0002:00009788       $unwind$_get_osfhandle     0000000180031788     LIBCMT:mbctype.obj
 0002:00009788       $unwind$__doserrno         0000000180031788     LIBCMT:mbctype.obj
 0002:00009788       $unwind$__termconout       0000000180031788     LIBCMT:mbctype.obj
 0002:00009788       $unwind$abort              0000000180031788     LIBCMT:mbctype.obj
 0002:00009788       $unwind$_errno             0000000180031788     LIBCMT:mbctype.obj
 0002:00009788       $unwind$_invoke_watson     0000000180031788     LIBCMT:mbctype.obj
 0002:00009788       $unwind$_mtterm            0000000180031788     LIBCMT:mbctype.obj
 0002:00009788       $unwind$_msize             0000000180031788     LIBCMT:mbctype.obj
 0002:00009788       $unwind$__endstdio         0000000180031788     LIBCMT:mbctype.obj
 0002:00009788       $unwind$_fileno            0000000180031788     LIBCMT:mbctype.obj
 0002:00009788       $unwind$_set_error_mode    0000000180031788     LIBCMT:mbctype.obj
 0002:00009788       $unwind$_isatty            0000000180031788     LIBCMT:mbctype.obj
 0002:00009788       $unwind$__GSHandlerCheck   0000000180031788     LIBCMT:mbctype.obj
 0002:00009788       $unwind$_initp_eh_hooks    0000000180031788     LIBCMT:mbctype.obj
 0002:00009788       $unwind$_heap_init         0000000180031788     LIBCMT:mbctype.obj
 0002:00009788       $unwind$_stricmp           0000000180031788     LIBCMT:mbctype.obj
 0002:00009788       $unwind$__crtDownlevelLocaleNameToLCID 0000000180031788     LIBCMT:mbctype.obj
 0002:00009788       $unwind$atexit             0000000180031788     LIBCMT:mbctype.obj
 0002:00009790       $unwind$_setmbcp_nolock    0000000180031790     LIBCMT:mbctype.obj
 0002:000097b0       $unwind$?setSBUpLow@@YAXPEAUthreadmbcinfostruct@@@Z 00000001800317b0     LIBCMT:mbctype.obj
 0002:000097cc       $unwind$_tolower_l         00000001800317cc     LIBCMT:tolower.obj
 0002:000097dc       $unwind$_freefls           00000001800317dc     LIBCMT:tidtable.obj
 0002:00009810       $unwind$_initptd           0000000180031810     LIBCMT:tidtable.obj
 0002:00009844       $unwind$_locterm           0000000180031844     LIBCMT:wsetloca.obj
 0002:00009864       $unwind$parse_cmdline      0000000180031864     LIBCMT:stdargv.obj
 0002:00009880       $unwind$_setenvp           0000000180031880     LIBCMT:stdenvp.obj
 0002:00009880       $unwind$_invalid_parameter 0000000180031880     LIBCMT:stdenvp.obj
 0002:00009894       $unwind$__security_init_cookie 0000000180031894     LIBCMT:gs_support.obj
 0002:000098a0       $unwind$_cftof2_l          00000001800318a0     LIBCMT:a_env.obj
 0002:000098a0       $unwind$__crtGetEnvironmentStringsA 00000001800318a0     LIBCMT:a_env.obj
 0002:000098b8       $unwind$__crtCaptureCurrentContext 00000001800318b8     LIBCMT:winapisupp.obj
 0002:000098c4       $unwind$__crtCapturePreviousContext 00000001800318c4     LIBCMT:winapisupp.obj
 0002:000098d0       $unwind$__DestructExceptionObject 00000001800318d0     LIBCMT:frame.obj
 0002:000098f0       $unwind$?terminate@@YAXXZ  00000001800318f0     LIBCMT:hooks.obj
 0002:00009910       $xdatasym                  0000000180031910     LIBCMT:strcmp.obj
 0002:00009914       $unwind$?_Type_info_dtor@type_info@@CAXPEAV1@@Z 0000000180031914     LIBCMT:typname.obj
 0002:00009934       $unwind$_invalid_parameter_noinfo 0000000180031934     LIBCMT:cvt.obj
 0002:00009934       $unwind$_itow_s            0000000180031934     LIBCMT:cvt.obj
 0002:00009934       $unwind$_vswprintf_c_l     0000000180031934     LIBCMT:cvt.obj
 0002:00009934       $unwind$_cfltcvt_l         0000000180031934     LIBCMT:cvt.obj
 0002:00009934       $unwind$wctomb_s           0000000180031934     LIBCMT:cvt.obj
 0002:0000993c       $unwind$_fassign_l         000000018003193c     LIBCMT:cvt.obj
 0002:00009944       $unwind$_cftoe2_l          0000000180031944     LIBCMT:cvt.obj
 0002:00009960       $unwind$_cftoe_l           0000000180031960     LIBCMT:cvt.obj
 0002:00009978       $unwind$_cftoa_l           0000000180031978     LIBCMT:cvt.obj
 0002:00009994       $unwind$_cftof_l           0000000180031994     LIBCMT:cvt.obj
 0002:000099ac       $unwind$_cftog_l           00000001800319ac     LIBCMT:cvt.obj
 0002:000099c4       $unwind$_IsNonwritableInCurrentImage 00000001800319c4     LIBCMT:pesect.obj
 0002:000099e8       $xdatasym                  00000001800319e8     LIBCMT:jmpuwind.obj
 0002:000099fc       $unwind$__crtLCMapStringEx 00000001800319fc     LIBCMT:winapinls.obj
 0002:00009a10       $xdatasym                  0000000180031a10     LIBCMT:fpsr.obj
 0002:00009a18       $xdatasym                  0000000180031a18     LIBCMT:memset.obj
 0002:00009a1c       $unwind$_commit            0000000180031a1c     LIBCMT:commit.obj
 0002:00009a44       $unwind$_write             0000000180031a44     LIBCMT:write.obj
 0002:00009a70       $unwind$_write_nolock      0000000180031a70     LIBCMT:write.obj
 0002:00009a94       $unwind$_woutput_l         0000000180031a94     LIBCMT:woutput.obj
 0002:00009ab8       $unwind$_flsbuf            0000000180031ab8     LIBCMT:_flsbuf.obj
 0002:00009acc       $unwind$fclose             0000000180031acc     LIBCMT:fclose.obj
 0002:00009af0       $unwind$isdigit            0000000180031af0     LIBCMT:_wctype.obj
 0002:00009af0       $unwind$?getSystemCP@@YAHH@Z 0000000180031af0     LIBCMT:_wctype.obj
 0002:00009af0       $unwind$_forcdecpt_l       0000000180031af0     LIBCMT:_wctype.obj
 0002:00009af0       $unwind$isleadbyte         0000000180031af0     LIBCMT:_wctype.obj
 0002:00009af0       $unwind$??2@YAPEAX_K@Z     0000000180031af0     LIBCMT:_wctype.obj
 0002:00009af0       $unwind$_isleadbyte_l      0000000180031af0     LIBCMT:_wctype.obj
 0002:00009af0       $unwind$_cropzeros_l       0000000180031af0     LIBCMT:_wctype.obj
 0002:00009af8       $unwind$_wctomb_s_l        0000000180031af8     LIBCMT:wctomb.obj
 0002:00009b08       $unwind$__free_lc_time     0000000180031b08     LIBCMT:inittime.obj
 0002:00009b08       $unwind$__free_lconv_mon   0000000180031b08     LIBCMT:inittime.obj
 0002:00009b10       $unwind$__crtLCMapStringA  0000000180031b10     LIBCMT:a_map.obj
 0002:00009b20       $unwind$?__crtLCMapStringA_stat@@YAHPEAUlocaleinfo_struct@@PEB_WKPEBDHPEADHHH@Z 0000000180031b20     LIBCMT:a_map.obj
 0002:00009b48       $unwind$__crtGetStringTypeA 0000000180031b48     LIBCMT:a_str.obj
 0002:00009b58       $unwind$?__crtGetStringTypeA_stat@@YAHPEAUlocaleinfo_struct@@KPEBDHPEAGHH@Z 0000000180031b58     LIBCMT:a_str.obj
 0002:00009b80       $unwind$_isctype_l         0000000180031b80     LIBCMT:isctype.obj
 0002:00009b90       $xdatasym                  0000000180031b90     LIBCMT:memcmp.obj
 0002:00009b94       $unwind$_stricmp_l         0000000180031b94     LIBCMT:ismbbyte.obj
 0002:00009b94       $unwind$?x_ismbbtype_l@@YAHPEAUlocaleinfo_struct@@IHH@Z 0000000180031b94     LIBCMT:ismbbyte.obj
 0002:00009ba8       $xdatasym                  0000000180031ba8     LIBCMT:handlers.obj
 0002:00009bb0       $unwind$strrchr            0000000180031bb0     LIBCMT:strrchr.obj
 0002:00009bb8       $unwind$_atodbl_l          0000000180031bb8     LIBCMT:atodbl.obj
 0002:00009bcc       $unwind$__crt_atoflt_l     0000000180031bcc     LIBCMT:atodbl.obj
 0002:00009be0       $unwind$_fltout2           0000000180031be0     LIBCMT:cfout.obj
 0002:00009bf8       $xdatasym                  0000000180031bf8     LIBCMT:chkstk.obj
 0002:00009c00       $unwind$_free_osfhnd       0000000180031c00     LIBCMT:osfinfo.obj
 0002:00009c00       $unwind$_stbuf             0000000180031c00     LIBCMT:osfinfo.obj
 0002:00009c10       $unwind$__lock_fhandle     0000000180031c10     LIBCMT:osfinfo.obj
 0002:00009c3c       $unwind$_lseeki64          0000000180031c3c     LIBCMT:lseeki64.obj
 0002:00009c68       $unwind$_mbtowc_l          0000000180031c68     LIBCMT:mbtowc.obj
 0002:00009c80       $unwind$__report_gsfailure 0000000180031c80     LIBCMT:putwch.obj
 0002:00009c80       $unwind$_putwch_nolock     0000000180031c80     LIBCMT:putwch.obj
 0002:00009c88       $unwind$_fputwc_nolock     0000000180031c88     LIBCMT:fputwc.obj
 0002:00009ca4       $unwind$_close             0000000180031ca4     LIBCMT:close.obj
 0002:00009ccc       $unwind$_ld12tod           0000000180031ccc     LIBCMT:intrncvt.obj
 0002:00009ccc       $unwind$_ld12tof           0000000180031ccc     LIBCMT:intrncvt.obj
 0002:00009cf0       $unwind$__strgtold12_l     0000000180031cf0     LIBCMT:strgtold.obj
 0002:00009d14       $unwind$$I10_OUTPUT        0000000180031d14     LIBCMT:x10fout.obj
 0002:00009d38       $unwind$_flswbuf           0000000180031d38     LIBCMT:_flswbuf.obj
 0002:00009d4c       $unwind$__mtold12          0000000180031d4c     LIBCMT:mantold.obj
 0002:00009d64       $unwind$__delayLoadHelper2 0000000180031d64     DelayImp:delayhlp.obj
 0002:0000ae00       .edata                     0000000180032e00     secp256k1.exp
 0002:0000ae28       rgpv                       0000000180032e28     secp256k1.exp
 0002:0000ae2c       rgszName                   0000000180032e2c     secp256k1.exp
 0002:0000ae30       rgwOrd                     0000000180032e30     secp256k1.exp
 0002:0000ae32       szName                     0000000180032e32     secp256k1.exp
 0002:0000ae41       $N00001                    0000000180032e41     secp256k1.exp
 0002:0000b0bc       .idata$6                   00000001800330bc     kernel32:KERNEL32.dll
 0003:00000000       _assertstring              0000000180034000     LIBCMT:wassert.obj
 0003:00000050       dotdotdot                  0000000180034050     LIBCMT:wassert.obj
 0003:00000058       newline                    0000000180034058     LIBCMT:wassert.obj
 0003:00000060       dblnewline                 0000000180034060     LIBCMT:wassert.obj
 0003:00000450       ?dazSupported@?1??_ctrlfp@@9@9 0000000180034450     LIBCMT:fpctrl.obj
 0003:00000460       errtable                   0000000180034460     LIBCMT:dosmap.obj
 0003:000005c8       ErrnoNoMem                 00000001800345c8     LIBCMT:dosmap.obj
 0003:000005cc       DoserrorNoMem              00000001800345cc     LIBCMT:dosmap.obj
 0003:000005d0       _locktable                 00000001800345d0     LIBCMT:mlock.obj
 0003:00000cb8       __rgctypeflag              0000000180034cb8     LIBCMT:mbctype.obj
 0003:00000cc0       __rgcode_page_info         0000000180034cc0     LIBCMT:mbctype.obj
 0003:00001200       _ctype_loc_style           0000000180035200     LIBCMT:wsetloca.obj
 0003:00001208       ?isPackaged@?1??__crtIsPackagedApp@@9@9 0000000180035208     LIBCMT:winapisupp.obj
 0003:00001260       ?_names@?1??_get_fname@@9@9 0000000180035260     LIBCMT:fpexcept.obj
 0003:00001528       DoubleFormat               0000000180035528     LIBCMT:intrncvt.obj
 0003:00001540       FloatFormat                0000000180035540     LIBCMT:intrncvt.obj
 0003:00001830       _module                    0000000180035830     * CIL library *:* CIL module *
 0003:00001aa8       allocator_arg              0000000180035aa8     libcpmt:syserror.obj
 0003:00001aa9       piecewise_construct        0000000180035aa9     libcpmt:syserror.obj
 0003:00001aaa       _Tuple_alloc               0000000180035aaa     libcpmt:xthrow.obj
 0003:00001aab       ignore                     0000000180035aab     libcpmt:xthrow.obj
 0003:00001aac       allocator_arg              0000000180035aac     libcpmt:xthrow.obj
 0003:00001aad       piecewise_construct        0000000180035aad     libcpmt:xthrow.obj
 0003:00001ab8       __proc_attached            0000000180035ab8     LIBCMT:dllcrt0.obj
 0003:00001ae0       GS_ExceptionRecord         0000000180035ae0     LIBCMT:gs_report.obj
 0003:00001b80       GS_ContextRecord           0000000180035b80     LIBCMT:gs_report.obj
 0003:00002050       DebuggerWasPresent         0000000180036050     LIBCMT:gs_report.obj
 0003:000020d8       ctrlc_action               00000001800360d8     LIBCMT:winsig.obj
 0003:000020e0       ctrlbreak_action           00000001800360e0     LIBCMT:winsig.obj
 0003:000020e8       abort_action               00000001800360e8     LIBCMT:winsig.obj
 0003:000020f0       term_action                00000001800360f0     LIBCMT:winsig.obj
 0003:000020f8       ConsoleCtrlHandler_Installed 00000001800360f8     LIBCMT:winsig.obj
 0003:00002100       ?pfnMessageBox@?1??__crtMessageBoxW@@9@9 0000000180036100     LIBCMT:crtmboxw.obj
 0003:00002108       ?pfnGetActiveWindow@?1??__crtMessageBoxW@@9@9 0000000180036108     LIBCMT:crtmboxw.obj
 0003:00002110       ?pfnGetLastActivePopup@?1??__crtMessageBoxW@@9@9 0000000180036110     LIBCMT:crtmboxw.obj
 0003:00002118       ?pfnGetProcessWindowStation@?1??__crtMessageBoxW@@9@9 0000000180036118     LIBCMT:crtmboxw.obj
 0003:00002120       ?pfnGetUserObjectInformation@?1??__crtMessageBoxW@@9@9 0000000180036120     LIBCMT:crtmboxw.obj
 0003:00002140       ?outmsg@?8??_NMSG_WRITE@@9@9 0000000180036140     LIBCMT:crt0msg.obj
 0003:00002780       lclcritsects               0000000180036780     LIBCMT:mlock.obj
 0003:00002be0       fSystemSet                 0000000180036be0     LIBCMT:mbctype.obj
 0003:00002bf0       ?_pgmname@?1??_setargv@@9@9 0000000180036bf0     LIBCMT:stdargv.obj
 0003:00002d08       __type_info_root_node      0000000180036d08     LIBCMT:typname.obj
 0003:00002d18       g_pfnRtlGenRandom          0000000180036d18     LIBCMT:rand_s.obj
 0003:00002d20       __crtCallProc              0000000180036d20     LIBCMT:winapinls.obj
 0003:00002d28       __enable_percent_n         0000000180036d28     LIBCMT:printf.obj
 0003:00002d80       heap                       0000000180036d80     LIBCMT:undname.obj
 0003:00002dc0       allocator_arg              0000000180036dc0     * CIL library *:* CIL module *
 0003:00002dc1       piecewise_construct        0000000180036dc1     * CIL library *:* CIL module *
 0003:00002dc2       allocator_arg              0000000180036dc2     * CIL library *:* CIL module *
 0003:00002dc3       piecewise_construct        0000000180036dc3     * CIL library *:* CIL module *
 0003:00002dc4       allocator_arg              0000000180036dc4     * CIL library *:* CIL module *
 0003:00002dc5       piecewise_construct        0000000180036dc5     * CIL library *:* CIL module *
 0003:00002dc6       allocator_arg              0000000180036dc6     * CIL library *:* CIL module *
 0003:00002dc7       piecewise_construct        0000000180036dc7     * CIL library *:* CIL module *
 0003:00002dc8       allocator_arg              0000000180036dc8     * CIL library *:* CIL module *
 0003:00002dc9       piecewise_construct        0000000180036dc9     * CIL library *:* CIL module *
 0003:00002dca       allocator_arg              0000000180036dca     * CIL library *:* CIL module *
 0003:00002dcb       piecewise_construct        0000000180036dcb     * CIL library *:* CIL module *
 0004:00000000       $pdata$?FunctionCallbackWrapper@imp@Nan@@YAXAEBV?$FunctionCallbackInfo@VValue@v8@@@v8@@@Z 0000000180038000     * CIL library *:* CIL module *
 0004:0000000c       $pdata$?New@?$Factory@VFunctionTemplate@v8@@@imp@Nan@@SA?AV?$Local@VFunctionTemplate@v8@@@v8@@P6AXAEBV?$FunctionCallbackInfo@VValue@v8@@@3@@ZV?$Local@VValue@v8@@@5@V?$Local@VSignature@v8@@@5@@Z 000000018003800c     * CIL library *:* CIL module *
 0004:00000018       $pdata$0$?New@?$Factory@VFunctionTemplate@v8@@@imp@Nan@@SA?AV?$Local@VFunctionTemplate@v8@@@v8@@P6AXAEBV?$FunctionCallbackInfo@VValue@v8@@@3@@ZV?$Local@VValue@v8@@@5@V?$Local@VSignature@v8@@@5@@Z 0000000180038018     * CIL library *:* CIL module *
 0004:00000024       $pdata$1$?New@?$Factory@VFunctionTemplate@v8@@@imp@Nan@@SA?AV?$Local@VFunctionTemplate@v8@@@v8@@P6AXAEBV?$FunctionCallbackInfo@VValue@v8@@@3@@ZV?$Local@VValue@v8@@@5@V?$Local@VSignature@v8@@@5@@Z 0000000180038024     * CIL library *:* CIL module *
 0004:00000030       $pdata$2$?New@?$Factory@VFunctionTemplate@v8@@@imp@Nan@@SA?AV?$Local@VFunctionTemplate@v8@@@v8@@P6AXAEBV?$FunctionCallbackInfo@VValue@v8@@@3@@ZV?$Local@VValue@v8@@@5@V?$Local@VSignature@v8@@@5@@Z 0000000180038030     * CIL library *:* CIL module *
 0004:0000003c       $pdata$3$?New@?$Factory@VFunctionTemplate@v8@@@imp@Nan@@SA?AV?$Local@VFunctionTemplate@v8@@@v8@@P6AXAEBV?$FunctionCallbackInfo@VValue@v8@@@3@@ZV?$Local@VValue@v8@@@5@V?$Local@VSignature@v8@@@5@@Z 000000018003803c     * CIL library *:* CIL module *
 0004:00000048       $pdata$?Export@Nan@@YAXV?$Local@VObject@v8@@@v8@@PEBDP6AXAEBV?$FunctionCallbackInfo@VValue@v8@@@1@@Z@Z 0000000180038048     * CIL library *:* CIL module *
 0004:00000054       $pdata$?Init@@YAXV?$Local@VObject@v8@@@v8@@@Z 0000000180038054     * CIL library *:* CIL module *
 0004:00000060       $pdata$?ThrowError@Nan@@YAXPEBD@Z 0000000180038060     * CIL library *:* CIL module *
 0004:0000006c       $pdata$?ThrowRangeError@Nan@@YAXPEBD@Z 000000018003806c     * CIL library *:* CIL module *
 0004:00000078       $pdata$?ThrowTypeError@Nan@@YAXPEBD@Z 0000000180038078     * CIL library *:* CIL module *
 0004:00000084       $pdata$?secp256k1_scalar_set_b32@@YAXPEAUsecp256k1_scalar@@PEBEPEAH@Z 0000000180038084     * CIL library *:* CIL module *
 0004:00000084       $pdata$secp256k1_scalar_set_b32 0000000180038084     * CIL library *:* CIL module *
 0004:00000090       $pdata$?secp256k1_scalar_reduce_512@@YAXPEAUsecp256k1_scalar@@PEBI@Z 0000000180038090     * CIL library *:* CIL module *
 0004:00000090       $pdata$secp256k1_scalar_reduce_512 0000000180038090     * CIL library *:* CIL module *
 0004:0000009c       $pdata$?secp256k1_scalar_mul_512@@YAXPEAIPEBUsecp256k1_scalar@@1@Z 000000018003809c     * CIL library *:* CIL module *
 0004:0000009c       $pdata$secp256k1_scalar_mul_512 000000018003809c     * CIL library *:* CIL module *
 0004:000000a8       $pdata$secp256k1_scalar_sqr_512 00000001800380a8     * CIL library *:* CIL module *
 0004:000000a8       $pdata$?secp256k1_scalar_sqr_512@@YAXPEAIPEBUsecp256k1_scalar@@@Z 00000001800380a8     * CIL library *:* CIL module *
 0004:000000b4       $pdata$?secp256k1_scalar_inverse@@YAXPEAUsecp256k1_scalar@@PEBU1@@Z 00000001800380b4     * CIL library *:* CIL module *
 0004:000000b4       $pdata$secp256k1_scalar_inverse 00000001800380b4     * CIL library *:* CIL module *
 0004:000000c0       $pdata$?privateKeyVerify@@YAXAEBV?$FunctionCallbackInfo@VValue@v8@@@Nan@@@Z 00000001800380c0     * CIL library *:* CIL module *
 0004:000000cc       $pdata$?privateKeyExport@@YAXAEBV?$FunctionCallbackInfo@VValue@v8@@@Nan@@@Z 00000001800380cc     * CIL library *:* CIL module *
 0004:000000d8       $pdata$?privateKeyImport@@YAXAEBV?$FunctionCallbackInfo@VValue@v8@@@Nan@@@Z 00000001800380d8     * CIL library *:* CIL module *
 0004:000000e4       $pdata$0$?privateKeyImport@@YAXAEBV?$FunctionCallbackInfo@VValue@v8@@@Nan@@@Z 00000001800380e4     * CIL library *:* CIL module *
 0004:000000f0       $pdata$1$?privateKeyImport@@YAXAEBV?$FunctionCallbackInfo@VValue@v8@@@Nan@@@Z 00000001800380f0     * CIL library *:* CIL module *
 0004:000000fc       $pdata$?privateKeyNegate@@YAXAEBV?$FunctionCallbackInfo@VValue@v8@@@Nan@@@Z 00000001800380fc     * CIL library *:* CIL module *
 0004:00000108       $pdata$?privateKeyModInverse@@YAXAEBV?$FunctionCallbackInfo@VValue@v8@@@Nan@@@Z 0000000180038108     * CIL library *:* CIL module *
 0004:00000114       $pdata$?privateKeyTweakAdd@@YAXAEBV?$FunctionCallbackInfo@VValue@v8@@@Nan@@@Z 0000000180038114     * CIL library *:* CIL module *
 0004:00000120       $pdata$?privateKeyTweakMul@@YAXAEBV?$FunctionCallbackInfo@VValue@v8@@@Nan@@@Z 0000000180038120     * CIL library *:* CIL module *
 0004:0000012c       $pdata$?publicKeyCreate@@YAXAEBV?$FunctionCallbackInfo@VValue@v8@@@Nan@@@Z 000000018003812c     * CIL library *:* CIL module *
 0004:00000138       $pdata$?publicKeyConvert@@YAXAEBV?$FunctionCallbackInfo@VValue@v8@@@Nan@@@Z 0000000180038138     * CIL library *:* CIL module *
 0004:00000144       $pdata$?publicKeyVerify@@YAXAEBV?$FunctionCallbackInfo@VValue@v8@@@Nan@@@Z 0000000180038144     * CIL library *:* CIL module *
 0004:00000150       $pdata$0$?publicKeyVerify@@YAXAEBV?$FunctionCallbackInfo@VValue@v8@@@Nan@@@Z 0000000180038150     * CIL library *:* CIL module *
 0004:0000015c       $pdata$1$?publicKeyVerify@@YAXAEBV?$FunctionCallbackInfo@VValue@v8@@@Nan@@@Z 000000018003815c     * CIL library *:* CIL module *
 0004:00000168       $pdata$?publicKeyTweakAdd@@YAXAEBV?$FunctionCallbackInfo@VValue@v8@@@Nan@@@Z 0000000180038168     * CIL library *:* CIL module *
 0004:00000174       $pdata$?publicKeyTweakMul@@YAXAEBV?$FunctionCallbackInfo@VValue@v8@@@Nan@@@Z 0000000180038174     * CIL library *:* CIL module *
 0004:00000180       $pdata$?publicKeyCombine@@YAXAEBV?$FunctionCallbackInfo@VValue@v8@@@Nan@@@Z 0000000180038180     * CIL library *:* CIL module *
 0004:0000018c       $pdata$?signatureNormalize@@YAXAEBV?$FunctionCallbackInfo@VValue@v8@@@Nan@@@Z 000000018003818c     * CIL library *:* CIL module *
 0004:00000198       $pdata$?signatureExport@@YAXAEBV?$FunctionCallbackInfo@VValue@v8@@@Nan@@@Z 0000000180038198     * CIL library *:* CIL module *
 0004:000001a4       $pdata$?signatureImport@@YAXAEBV?$FunctionCallbackInfo@VValue@v8@@@Nan@@@Z 00000001800381a4     * CIL library *:* CIL module *
 0004:000001b0       $pdata$0$?signatureImport@@YAXAEBV?$FunctionCallbackInfo@VValue@v8@@@Nan@@@Z 00000001800381b0     * CIL library *:* CIL module *
 0004:000001bc       $pdata$1$?signatureImport@@YAXAEBV?$FunctionCallbackInfo@VValue@v8@@@Nan@@@Z 00000001800381bc     * CIL library *:* CIL module *
 0004:000001c8       $pdata$?signatureImportLax@@YAXAEBV?$FunctionCallbackInfo@VValue@v8@@@Nan@@@Z 00000001800381c8     * CIL library *:* CIL module *
 0004:000001d4       $pdata$0$?signatureImportLax@@YAXAEBV?$FunctionCallbackInfo@VValue@v8@@@Nan@@@Z 00000001800381d4     * CIL library *:* CIL module *
 0004:000001e0       $pdata$1$?signatureImportLax@@YAXAEBV?$FunctionCallbackInfo@VValue@v8@@@Nan@@@Z 00000001800381e0     * CIL library *:* CIL module *
 0004:000001ec       $pdata$?nonce_function_custom@@YAHPEAEPEBE11PEAXI@Z 00000001800381ec     * CIL library *:* CIL module *
 0004:000001f8       $pdata$?sign@@YAXAEBV?$FunctionCallbackInfo@VValue@v8@@@Nan@@@Z 00000001800381f8     * CIL library *:* CIL module *
 0004:00000204       $pdata$4$?sign@@YAXAEBV?$FunctionCallbackInfo@VValue@v8@@@Nan@@@Z 0000000180038204     * CIL library *:* CIL module *
 0004:00000210       $pdata$5$?sign@@YAXAEBV?$FunctionCallbackInfo@VValue@v8@@@Nan@@@Z 0000000180038210     * CIL library *:* CIL module *
 0004:0000021c       $pdata$?verify@@YAXAEBV?$FunctionCallbackInfo@VValue@v8@@@Nan@@@Z 000000018003821c     * CIL library *:* CIL module *
 0004:00000228       $pdata$?recover@@YAXAEBV?$FunctionCallbackInfo@VValue@v8@@@Nan@@@Z 0000000180038228     * CIL library *:* CIL module *
 0004:00000234       $pdata$secp256k1_fe_normalize 0000000180038234     * CIL library *:* CIL module *
 0004:00000234       $pdata$?secp256k1_fe_normalize@@YAXPEAUsecp256k1_fe@@@Z 0000000180038234     * CIL library *:* CIL module *
 0004:00000240       $pdata$?secp256k1_fe_normalize_weak@@YAXPEAUsecp256k1_fe@@@Z 0000000180038240     * CIL library *:* CIL module *
 0004:00000240       $pdata$secp256k1_fe_normalize_weak 0000000180038240     * CIL library *:* CIL module *
 0004:0000024c       $pdata$?secp256k1_fe_normalizes_to_zero@@YAHPEAUsecp256k1_fe@@@Z 000000018003824c     * CIL library *:* CIL module *
 0004:0000024c       $pdata$secp256k1_fe_normalizes_to_zero 000000018003824c     * CIL library *:* CIL module *
 0004:00000258       $pdata$secp256k1_fe_normalizes_to_zero_var 0000000180038258     * CIL library *:* CIL module *
 0004:00000258       $pdata$?secp256k1_fe_normalizes_to_zero_var@@YAHPEAUsecp256k1_fe@@@Z 0000000180038258     * CIL library *:* CIL module *
 0004:00000264       $pdata$?secp256k1_fe_mul_inner@@YAXPEAIPEBIPEIBI@Z 0000000180038264     * CIL library *:* CIL module *
 0004:00000270       $pdata$secp256k1_fe_sqr_inner 0000000180038270     * CIL library *:* CIL module *
 0004:00000270       $pdata$?secp256k1_fe_sqr_inner@@YAXPEAIPEBI@Z 0000000180038270     * CIL library *:* CIL module *
 0004:0000027c       $pdata$?secp256k1_fe_cmov@@YAXPEAUsecp256k1_fe@@PEBU1@H@Z 000000018003827c     * CIL library *:* CIL module *
 0004:0000027c       $pdata$secp256k1_fe_cmov   000000018003827c     * CIL library *:* CIL module *
 0004:00000288       $pdata$?secp256k1_fe_inv@@YAXPEAUsecp256k1_fe@@PEBU1@@Z 0000000180038288     * CIL library *:* CIL module *
 0004:00000294       $pdata$?secp256k1_scalar_cadd_bit@@YAXPEAUsecp256k1_scalar@@IH@Z 0000000180038294     * CIL library *:* CIL module *
 0004:000002a0       $pdata$?secp256k1_scalar_set_b32@@YAXPEAUsecp256k1_scalar@@PEBEPEAH@Z 00000001800382a0     * CIL library *:* CIL module *
 0004:000002ac       $pdata$?secp256k1_scalar_negate@@YAXPEAUsecp256k1_scalar@@PEBU1@@Z 00000001800382ac     * CIL library *:* CIL module *
 0004:000002b8       $pdata$?secp256k1_scalar_cond_negate@@YAHPEAUsecp256k1_scalar@@H@Z 00000001800382b8     * CIL library *:* CIL module *
 0004:000002c4       $pdata$?secp256k1_ge_set_gej@@YAXPEAUsecp256k1_ge@@PEAUsecp256k1_gej@@@Z 00000001800382c4     * CIL library *:* CIL module *
 0004:000002d0       $pdata$?secp256k1_gej_double_var@@YAXPEAUsecp256k1_gej@@PEBU1@PEAUsecp256k1_fe@@@Z 00000001800382d0     * CIL library *:* CIL module *
 0004:000002dc       $pdata$2$?secp256k1_gej_double_var@@YAXPEAUsecp256k1_gej@@PEBU1@PEAUsecp256k1_fe@@@Z 00000001800382dc     * CIL library *:* CIL module *
 0004:000002e8       $pdata$3$?secp256k1_gej_double_var@@YAXPEAUsecp256k1_gej@@PEBU1@PEAUsecp256k1_fe@@@Z 00000001800382e8     * CIL library *:* CIL module *
 0004:000002f4       $pdata$?secp256k1_gej_add_ge_var@@YAXPEAUsecp256k1_gej@@PEBU1@PEBUsecp256k1_ge@@PEAUsecp256k1_fe@@@Z 00000001800382f4     * CIL library *:* CIL module *
 0004:00000300       $pdata$1$?secp256k1_gej_add_ge_var@@YAXPEAUsecp256k1_gej@@PEBU1@PEBUsecp256k1_ge@@PEAUsecp256k1_fe@@@Z 0000000180038300     * CIL library *:* CIL module *
 0004:0000030c       $pdata$2$?secp256k1_gej_add_ge_var@@YAXPEAUsecp256k1_gej@@PEBU1@PEBUsecp256k1_ge@@PEAUsecp256k1_fe@@@Z 000000018003830c     * CIL library *:* CIL module *
 0004:00000318       $pdata$?secp256k1_gej_add_ge@@YAXPEAUsecp256k1_gej@@PEBU1@PEBUsecp256k1_ge@@@Z 0000000180038318     * CIL library *:* CIL module *
 0004:00000324       $pdata$secp256k1_ge_to_storage 0000000180038324     * CIL library *:* CIL module *
 0004:00000324       $pdata$?secp256k1_ge_to_storage@@YAXPEAUsecp256k1_ge_storage@@PEBUsecp256k1_ge@@@Z 0000000180038324     * CIL library *:* CIL module *
 0004:00000330       $pdata$?secp256k1_ecmult_odd_multiples_table@@YAXHPEAUsecp256k1_gej@@PEAUsecp256k1_fe@@PEBU1@@Z 0000000180038330     * CIL library *:* CIL module *
 0004:0000033c       $pdata$?secp256k1_wnaf_const@@YAHPEAHUsecp256k1_scalar@@H@Z 000000018003833c     * CIL library *:* CIL module *
 0004:00000348       $pdata$?secp256k1_ecmult_const@@YAXPEAUsecp256k1_gej@@PEBUsecp256k1_ge@@PEBUsecp256k1_scalar@@@Z 0000000180038348     * CIL library *:* CIL module *
 0004:00000354       $pdata$secp256k1_sha256_transform 0000000180038354     * CIL library *:* CIL module *
 0004:00000354       $pdata$?secp256k1_sha256_transform@@YAXPEAIPEBI@Z 0000000180038354     * CIL library *:* CIL module *
 0004:00000360       $pdata$?secp256k1_sha256_write@@YAXPEAUsecp256k1_sha256_t@@PEBE_K@Z 0000000180038360     * CIL library *:* CIL module *
 0004:00000360       $pdata$secp256k1_sha256_write 0000000180038360     * CIL library *:* CIL module *
 0004:0000036c       $pdata$0$?secp256k1_sha256_write@@YAXPEAUsecp256k1_sha256_t@@PEBE_K@Z 000000018003836c     * CIL library *:* CIL module *
 0004:0000036c       $pdata$0$secp256k1_sha256_write 000000018003836c     * CIL library *:* CIL module *
 0004:00000378       $pdata$1$?secp256k1_sha256_write@@YAXPEAUsecp256k1_sha256_t@@PEBE_K@Z 0000000180038378     * CIL library *:* CIL module *
 0004:00000378       $pdata$1$secp256k1_sha256_write 0000000180038378     * CIL library *:* CIL module *
 0004:00000384       $pdata$?secp256k1_sha256_finalize@@YAXPEAUsecp256k1_sha256_t@@PEAE@Z 0000000180038384     * CIL library *:* CIL module *
 0004:00000390       $pdata$?ecdh@@YAXAEBV?$FunctionCallbackInfo@VValue@v8@@@Nan@@@Z 0000000180038390     * CIL library *:* CIL module *
 0004:0000039c       $pdata$?ecdhUnsafe@@YAXAEBV?$FunctionCallbackInfo@VValue@v8@@@Nan@@@Z 000000018003839c     * CIL library *:* CIL module *
 0004:000003a8       $pdata$secp256k1_fe_normalize_var 00000001800383a8     * CIL library *:* CIL module *
 0004:000003b4       $pdata$secp256k1_fe_set_b32 00000001800383b4     * CIL library *:* CIL module *
 0004:000003c0       $pdata$secp256k1_fe_mul_inner 00000001800383c0     * CIL library *:* CIL module *
 0004:000003cc       $pdata$secp256k1_fe_sqrt   00000001800383cc     * CIL library *:* CIL module *
 0004:000003d8       $pdata$secp256k1_fe_inv    00000001800383d8     * CIL library *:* CIL module *
 0004:000003e4       $pdata$secp256k1_fe_inv_all_var 00000001800383e4     * CIL library *:* CIL module *
 0004:000003f0       $pdata$2$secp256k1_fe_inv_all_var 00000001800383f0     * CIL library *:* CIL module *
 0004:000003fc       $pdata$3$secp256k1_fe_inv_all_var 00000001800383fc     * CIL library *:* CIL module *
 0004:00000408       $pdata$4$secp256k1_fe_inv_all_var 0000000180038408     * CIL library *:* CIL module *
 0004:00000414       $pdata$5$secp256k1_fe_inv_all_var 0000000180038414     * CIL library *:* CIL module *
 0004:00000420       $pdata$secp256k1_scalar_add 0000000180038420     * CIL library *:* CIL module *
 0004:0000042c       $pdata$secp256k1_ge_set_gej 000000018003842c     * CIL library *:* CIL module *
 0004:00000438       $pdata$secp256k1_ge_set_gej_var 0000000180038438     * CIL library *:* CIL module *
 0004:00000444       $pdata$secp256k1_ge_set_all_gej_var 0000000180038444     * CIL library *:* CIL module *
 0004:00000450       $pdata$secp256k1_ge_set_table_gej_var 0000000180038450     * CIL library *:* CIL module *
 0004:0000045c       $pdata$secp256k1_gej_eq_x_var 000000018003845c     * CIL library *:* CIL module *
 0004:00000468       $pdata$secp256k1_gej_neg   0000000180038468     * CIL library *:* CIL module *
 0004:00000474       $pdata$secp256k1_ge_is_valid_var 0000000180038474     * CIL library *:* CIL module *
 0004:00000480       $pdata$secp256k1_gej_double_var 0000000180038480     * CIL library *:* CIL module *
 0004:0000048c       $pdata$2$secp256k1_gej_double_var 000000018003848c     * CIL library *:* CIL module *
 0004:00000498       $pdata$3$secp256k1_gej_double_var 0000000180038498     * CIL library *:* CIL module *
 0004:000004a4       $pdata$secp256k1_gej_add_var 00000001800384a4     * CIL library *:* CIL module *
 0004:000004b0       $pdata$3$secp256k1_gej_add_var 00000001800384b0     * CIL library *:* CIL module *
 0004:000004bc       $pdata$secp256k1_gej_add_ge_var 00000001800384bc     * CIL library *:* CIL module *
 0004:000004c8       $pdata$1$secp256k1_gej_add_ge_var 00000001800384c8     * CIL library *:* CIL module *
 0004:000004d4       $pdata$2$secp256k1_gej_add_ge_var 00000001800384d4     * CIL library *:* CIL module *
 0004:000004e0       $pdata$secp256k1_gej_add_zinv_var 00000001800384e0     * CIL library *:* CIL module *
 0004:000004ec       $pdata$secp256k1_gej_add_ge 00000001800384ec     * CIL library *:* CIL module *
 0004:000004f8       $pdata$secp256k1_ge_storage_cmov 00000001800384f8     * CIL library *:* CIL module *
 0004:00000504       $pdata$secp256k1_ecmult_odd_multiples_table 0000000180038504     * CIL library *:* CIL module *
 0004:00000510       $pdata$secp256k1_ecmult_odd_multiples_table_storage_var 0000000180038510     * CIL library *:* CIL module *
 0004:0000051c       $pdata$secp256k1_ecmult_context_build 000000018003851c     * CIL library *:* CIL module *
 0004:00000528       $pdata$0$secp256k1_ecmult_context_build 0000000180038528     * CIL library *:* CIL module *
 0004:00000534       $pdata$1$secp256k1_ecmult_context_build 0000000180038534     * CIL library *:* CIL module *
 0004:00000540       $pdata$secp256k1_ecmult_wnaf 0000000180038540     * CIL library *:* CIL module *
 0004:0000054c       $pdata$0$secp256k1_ecmult_wnaf 000000018003854c     * CIL library *:* CIL module *
 0004:00000558       $pdata$secp256k1_ecmult    0000000180038558     * CIL library *:* CIL module *
 0004:00000564       $pdata$secp256k1_sha256_finalize 0000000180038564     * CIL library *:* CIL module *
 0004:00000570       $pdata$secp256k1_hmac_sha256_initialize 0000000180038570     * CIL library *:* CIL module *
 0004:0000057c       $pdata$2$secp256k1_hmac_sha256_initialize 000000018003857c     * CIL library *:* CIL module *
 0004:00000588       $pdata$3$secp256k1_hmac_sha256_initialize 0000000180038588     * CIL library *:* CIL module *
 0004:00000594       $pdata$4$secp256k1_hmac_sha256_initialize 0000000180038594     * CIL library *:* CIL module *
 0004:000005a0       $pdata$5$secp256k1_hmac_sha256_initialize 00000001800385a0     * CIL library *:* CIL module *
 0004:000005ac       $pdata$secp256k1_rfc6979_hmac_sha256_initialize 00000001800385ac     * CIL library *:* CIL module *
 0004:000005b8       $pdata$secp256k1_rfc6979_hmac_sha256_generate 00000001800385b8     * CIL library *:* CIL module *
 0004:000005c4       $pdata$secp256k1_ecmult_gen_context_build 00000001800385c4     * CIL library *:* CIL module *
 0004:000005d0       $pdata$1$secp256k1_ecmult_gen_context_build 00000001800385d0     * CIL library *:* CIL module *
 0004:000005dc       $pdata$6$secp256k1_ecmult_gen_context_build 00000001800385dc     * CIL library *:* CIL module *
 0004:000005e8       $pdata$7$secp256k1_ecmult_gen_context_build 00000001800385e8     * CIL library *:* CIL module *
 0004:000005f4       $pdata$8$secp256k1_ecmult_gen_context_build 00000001800385f4     * CIL library *:* CIL module *
 0004:00000600       $pdata$secp256k1_ecmult_gen 0000000180038600     * CIL library *:* CIL module *
 0004:0000060c       $pdata$secp256k1_ecmult_gen_blind 000000018003860c     * CIL library *:* CIL module *
 0004:00000618       $pdata$secp256k1_der_read_len 0000000180038618     * CIL library *:* CIL module *
 0004:00000624       $pdata$secp256k1_der_parse_integer 0000000180038624     * CIL library *:* CIL module *
 0004:00000630       $pdata$0$secp256k1_der_parse_integer 0000000180038630     * CIL library *:* CIL module *
 0004:0000063c       $pdata$1$secp256k1_der_parse_integer 000000018003863c     * CIL library *:* CIL module *
 0004:00000648       $pdata$2$secp256k1_der_parse_integer 0000000180038648     * CIL library *:* CIL module *
 0004:00000654       $pdata$3$secp256k1_der_parse_integer 0000000180038654     * CIL library *:* CIL module *
 0004:00000660       $pdata$secp256k1_ecdsa_sig_serialize 0000000180038660     * CIL library *:* CIL module *
 0004:0000066c       $pdata$secp256k1_ecdsa_sig_verify 000000018003866c     * CIL library *:* CIL module *
 0004:00000678       $pdata$secp256k1_eckey_pubkey_parse 0000000180038678     * CIL library *:* CIL module *
 0004:00000684       $pdata$default_illegal_callback_fn 0000000180038684     * CIL library *:* CIL module *
 0004:00000690       $pdata$default_error_callback_fn 0000000180038690     * CIL library *:* CIL module *
 0004:0000069c       $pdata$secp256k1_context_create 000000018003869c     * CIL library *:* CIL module *
 0004:000006a8       $pdata$secp256k1_pubkey_load 00000001800386a8     * CIL library *:* CIL module *
 0004:000006b4       $pdata$secp256k1_ec_pubkey_parse 00000001800386b4     * CIL library *:* CIL module *
 0004:000006c0       $pdata$secp256k1_ec_pubkey_serialize 00000001800386c0     * CIL library *:* CIL module *
 0004:000006cc       $pdata$1$secp256k1_ec_pubkey_serialize 00000001800386cc     * CIL library *:* CIL module *
 0004:000006d8       $pdata$2$secp256k1_ec_pubkey_serialize 00000001800386d8     * CIL library *:* CIL module *
 0004:000006e4       $pdata$secp256k1_ecdsa_signature_parse_der 00000001800386e4     * CIL library *:* CIL module *
 0004:000006f0       $pdata$0$secp256k1_ecdsa_signature_parse_der 00000001800386f0     * CIL library *:* CIL module *
 0004:000006fc       $pdata$2$secp256k1_ecdsa_signature_parse_der 00000001800386fc     * CIL library *:* CIL module *
 0004:00000708       $pdata$secp256k1_ecdsa_signature_parse_compact 0000000180038708     * CIL library *:* CIL module *
 0004:00000714       $pdata$secp256k1_ecdsa_signature_serialize_compact 0000000180038714     * CIL library *:* CIL module *
 0004:00000720       $pdata$secp256k1_ecdsa_verify 0000000180038720     * CIL library *:* CIL module *
 0004:0000072c       $pdata$nonce_function_rfc6979 000000018003872c     * CIL library *:* CIL module *
 0004:00000738       $pdata$secp256k1_ec_seckey_verify 0000000180038738     * CIL library *:* CIL module *
 0004:00000744       $pdata$secp256k1_ec_pubkey_create 0000000180038744     * CIL library *:* CIL module *
 0004:00000750       $pdata$0$secp256k1_ec_pubkey_create 0000000180038750     * CIL library *:* CIL module *
 0004:0000075c       $pdata$2$secp256k1_ec_pubkey_create 000000018003875c     * CIL library *:* CIL module *
 0004:00000768       $pdata$5$secp256k1_ec_pubkey_create 0000000180038768     * CIL library *:* CIL module *
 0004:00000774       $pdata$secp256k1_ec_privkey_negate 0000000180038774     * CIL library *:* CIL module *
 0004:00000780       $pdata$secp256k1_ec_privkey_tweak_add 0000000180038780     * CIL library *:* CIL module *
 0004:0000078c       $pdata$4$secp256k1_ec_privkey_tweak_add 000000018003878c     * CIL library *:* CIL module *
 0004:00000798       $pdata$5$secp256k1_ec_privkey_tweak_add 0000000180038798     * CIL library *:* CIL module *
 0004:000007a4       $pdata$secp256k1_ec_pubkey_tweak_add 00000001800387a4     * CIL library *:* CIL module *
 0004:000007b0       $pdata$0$secp256k1_ec_pubkey_tweak_add 00000001800387b0     * CIL library *:* CIL module *
 0004:000007bc       $pdata$1$secp256k1_ec_pubkey_tweak_add 00000001800387bc     * CIL library *:* CIL module *
 0004:000007c8       $pdata$secp256k1_ec_privkey_tweak_mul 00000001800387c8     * CIL library *:* CIL module *
 0004:000007d4       $pdata$secp256k1_ec_pubkey_tweak_mul 00000001800387d4     * CIL library *:* CIL module *
 0004:000007e0       $pdata$0$secp256k1_ec_pubkey_tweak_mul 00000001800387e0     * CIL library *:* CIL module *
 0004:000007ec       $pdata$1$secp256k1_ec_pubkey_tweak_mul 00000001800387ec     * CIL library *:* CIL module *
 0004:000007f8       $pdata$secp256k1_ec_pubkey_combine 00000001800387f8     * CIL library *:* CIL module *
 0004:00000804       $pdata$1$secp256k1_ec_pubkey_combine 0000000180038804     * CIL library *:* CIL module *
 0004:00000810       $pdata$2$secp256k1_ec_pubkey_combine 0000000180038810     * CIL library *:* CIL module *
 0004:0000081c       $pdata$3$secp256k1_ec_pubkey_combine 000000018003881c     * CIL library *:* CIL module *
 0004:00000828       $pdata$secp256k1_ecdsa_recoverable_signature_parse_compact 0000000180038828     * CIL library *:* CIL module *
 0004:00000834       $pdata$0$secp256k1_ecdsa_recoverable_signature_parse_compact 0000000180038834     * CIL library *:* CIL module *
 0004:00000840       $pdata$2$secp256k1_ecdsa_recoverable_signature_parse_compact 0000000180038840     * CIL library *:* CIL module *
 0004:0000084c       $pdata$3$secp256k1_ecdsa_recoverable_signature_parse_compact 000000018003884c     * CIL library *:* CIL module *
 0004:00000858       $pdata$secp256k1_ecdsa_sig_recover 0000000180038858     * CIL library *:* CIL module *
 0004:00000864       $pdata$1$secp256k1_ecdsa_sig_recover 0000000180038864     * CIL library *:* CIL module *
 0004:00000870       $pdata$2$secp256k1_ecdsa_sig_recover 0000000180038870     * CIL library *:* CIL module *
 0004:0000087c       $pdata$3$secp256k1_ecdsa_sig_recover 000000018003887c     * CIL library *:* CIL module *
 0004:00000888       $pdata$4$secp256k1_ecdsa_sig_recover 0000000180038888     * CIL library *:* CIL module *
 0004:00000894       $pdata$5$secp256k1_ecdsa_sig_recover 0000000180038894     * CIL library *:* CIL module *
 0004:000008a0       $pdata$secp256k1_ecdsa_sign_recoverable 00000001800388a0     * CIL library *:* CIL module *
 0004:000008ac       $pdata$0$secp256k1_ecdsa_sign_recoverable 00000001800388ac     * CIL library *:* CIL module *
 0004:000008b8       $pdata$1$secp256k1_ecdsa_sign_recoverable 00000001800388b8     * CIL library *:* CIL module *
 0004:000008c4       $pdata$secp256k1_ecdsa_recover 00000001800388c4     * CIL library *:* CIL module *
 0004:000008d0       $pdata$ecdsa_signature_parse_der_lax 00000001800388d0     * CIL library *:* CIL module *
 0004:000008dc       $pdata$0$ecdsa_signature_parse_der_lax 00000001800388dc     * CIL library *:* CIL module *
 0004:000008e8       $pdata$1$ecdsa_signature_parse_der_lax 00000001800388e8     * CIL library *:* CIL module *
 0004:000008f4       $pdata$2$ecdsa_signature_parse_der_lax 00000001800388f4     * CIL library *:* CIL module *
 0004:00000900       $pdata$3$ecdsa_signature_parse_der_lax 0000000180038900     * CIL library *:* CIL module *
 0004:0000090c       $pdata$ec_privkey_import_der 000000018003890c     * CIL library *:* CIL module *
 0004:00000918       $pdata$ec_privkey_export_der 0000000180038918     * CIL library *:* CIL module *
 0004:00000924       $pdata$?load_exe_hook@@YAP6A_JXZIPEAUDelayLoadInfo@@@Z 0000000180038924     * CIL library *:* CIL module *
 0004:0000093c       $pdata$??0bad_alloc@std@@QEAA@AEBV01@@Z 000000018003893c     libcpmt:xthrow.obj
 0004:00000948       $pdata$??_Gbad_alloc@std@@UEAAPEAXI@Z 0000000180038948     libcpmt:xthrow.obj
 0004:0000096c       $pdata$__onexitinit        000000018003896c     LIBCMT:onexit.obj
 0004:00000978       $pdata$_onexit             0000000180038978     LIBCMT:onexit.obj
 0004:00000984       $pdata$atexit              0000000180038984     LIBCMT:onexit.obj
 0004:00000990       $pdata$??2@YAPEAX_K@Z      0000000180038990     LIBCMT:new.obj
 0004:0000099c       $pdata$_wassert            000000018003899c     LIBCMT:wassert.obj
 0004:000009a8       $pdata$swprintf            00000001800389a8     LIBCMT:wassert.obj
 0004:000009b4       $pdata$abort               00000001800389b4     LIBCMT:abort.obj
 0004:000009c0       $pdata$free                00000001800389c0     LIBCMT:free.obj
 0004:000009cc       $pdata$malloc              00000001800389cc     LIBCMT:malloc.obj
 0004:000009d8       $pdata$__initstdio         00000001800389d8     LIBCMT:_file.obj
 0004:000009e4       $pdata$__endstdio          00000001800389e4     LIBCMT:_file.obj
 0004:000009f0       $pdata$_lock_file          00000001800389f0     LIBCMT:_file.obj
 0004:000009fc       $pdata$_lock_file2         00000001800389fc     LIBCMT:_file.obj
 0004:00000a08       $pdata$fprintf             0000000180038a08     LIBCMT:fprintf.obj
 0004:00000a14       $pdata$??0_LocaleUpdate@@QEAA@PEAUlocaleinfo_struct@@@Z 0000000180038a14     LIBCMT:stricmp.obj
 0004:00000a20       $pdata$_stricmp            0000000180038a20     LIBCMT:stricmp.obj
 0004:00000a2c       $pdata$_stricmp_l          0000000180038a2c     LIBCMT:stricmp.obj
 0004:00000a38       $pdata$_CRT_INIT           0000000180038a38     LIBCMT:dllcrt0.obj
 0004:00000a44       $pdata$_DllMainCRTStartup  0000000180038a44     LIBCMT:dllcrt0.obj
 0004:00000a50       $pdata$__DllMainCRTStartup 0000000180038a50     LIBCMT:dllcrt0.obj
 0004:00000a68       $pdata$_CxxThrowException  0000000180038a68     LIBCMT:throw.obj
 0004:00000a74       $pdata$??_Gtype_info@@UEAAPEAXI@Z 0000000180038a74     LIBCMT:typinfo.obj
 0004:00000a80       $pdata$??0exception@std@@QEAA@AEBV01@@Z 0000000180038a80     LIBCMT:stdexcpt.obj
 0004:00000a8c       $pdata$??4exception@std@@QEAAAEAV01@AEBV01@@Z 0000000180038a8c     LIBCMT:stdexcpt.obj
 0004:00000a98       $pdata$??_Gexception@std@@UEAAPEAXI@Z 0000000180038a98     LIBCMT:stdexcpt.obj
 0004:00000aa4       $pdata$?_Copy_str@exception@std@@AEAAXPEBD@Z 0000000180038aa4     LIBCMT:stdexcpt.obj
 0004:00000ab0       $pdata$?_Tidy@exception@std@@AEAAXXZ 0000000180038ab0     LIBCMT:stdexcpt.obj
 0004:00000abc       $pdata$__raise_securityfailure 0000000180038abc     LIBCMT:gs_report.obj
 0004:00000ac8       $pdata$__report_gsfailure  0000000180038ac8     LIBCMT:gs_report.obj
 0004:00000ad4       $pdata$__isa_available_init 0000000180038ad4     LIBCMT:cpu_disp.obj
 0004:00000ae0       $pdata$__crtCorExitProcess 0000000180038ae0     LIBCMT:crt0dat.obj
 0004:00000aec       $pdata$__crtExitProcess    0000000180038aec     LIBCMT:crt0dat.obj
 0004:00000af8       $pdata$__freeCrtMemory     0000000180038af8     LIBCMT:crt0dat.obj
 0004:00000b04       $pdata$_amsg_exit          0000000180038b04     LIBCMT:crt0dat.obj
 0004:00000b10       $pdata$_cinit              0000000180038b10     LIBCMT:crt0dat.obj
 0004:00000b1c       $pdata$_init_pointers      0000000180038b1c     LIBCMT:crt0dat.obj
 0004:00000b28       $pdata$_initterm           0000000180038b28     LIBCMT:crt0dat.obj
 0004:00000b34       $pdata$_initterm_e         0000000180038b34     LIBCMT:crt0dat.obj
 0004:00000b40       $pdata$doexit              0000000180038b40     LIBCMT:crt0dat.obj
 0004:00000b4c       $pdata$_msize              0000000180038b4c     LIBCMT:msize.obj
 0004:00000b58       $pdata$_calloc_crt         0000000180038b58     LIBCMT:crtheap.obj
 0004:00000b64       $pdata$_malloc_crt         0000000180038b64     LIBCMT:crtheap.obj
 0004:00000b70       $pdata$_realloc_crt        0000000180038b70     LIBCMT:crtheap.obj
 0004:00000b7c       $pdata$__C_specific_handler 0000000180038b7c     LIBCMT:chandler.obj
 0004:00000b88       $pdata$_callnewh           0000000180038b88     LIBCMT:handler.obj
 0004:00000b94       $pdata$_call_reportfault   0000000180038b94     LIBCMT:invarg.obj
 0004:00000ba0       $pdata$_invalid_parameter  0000000180038ba0     LIBCMT:invarg.obj
 0004:00000bac       $pdata$_invalid_parameter_noinfo 0000000180038bac     LIBCMT:invarg.obj
 0004:00000bb8       $pdata$_invoke_watson      0000000180038bb8     LIBCMT:invarg.obj
 0004:00000bc4       $pdata$memcpy_s            0000000180038bc4     LIBCMT:memcpy_s.obj
 0004:00000bd0       $pdata$wcscat_s            0000000180038bd0     LIBCMT:wcscat_s.obj
 0004:00000bdc       $pdata$wcscpy_s            0000000180038bdc     LIBCMT:wcscpy_s.obj
 0004:00000be8       $pdata$wcsncat_s           0000000180038be8     LIBCMT:wcsncat_s.obj
 0004:00000bf4       $pdata$_set_error_mode     0000000180038bf4     LIBCMT:errmode.obj
 0004:00000c00       $pdata$_itow_s             0000000180038c00     LIBCMT:xtows.obj
 0004:00000c0c       $pdata$xtow_s              0000000180038c0c     LIBCMT:xtows.obj
 0004:00000c18       $pdata$_fflush_nolock      0000000180038c18     LIBCMT:fflush.obj
 0004:00000c24       $pdata$_flush              0000000180038c24     LIBCMT:fflush.obj
 0004:00000c30       $pdata$fflush              0000000180038c30     LIBCMT:fflush.obj
 0004:00000c3c       $pdata$flsall              0000000180038c3c     LIBCMT:fflush.obj
 0004:00000c48       $pdata$setvbuf             0000000180038c48     LIBCMT:setvbuf.obj
 0004:00000c54       $pdata$fwprintf            0000000180038c54     LIBCMT:fwprintf.obj
 0004:00000c60       $pdata$_vswprintf_c_l      0000000180038c60     LIBCMT:vswprnc.obj
 0004:00000c6c       $pdata$_vswprintf_helper   0000000180038c6c     LIBCMT:vswprnc.obj
 0004:00000c78       $pdata$raise               0000000180038c78     LIBCMT:winsig.obj
 0004:00000c84       $pdata$__crtMessageBoxW    0000000180038c84     LIBCMT:crtmboxw.obj
 0004:00000c90       $pdata$__GSHandlerCheck    0000000180038c90     LIBCMT:gshandler.obj
 0004:00000c9c       $pdata$__GSHandlerCheckCommon 0000000180038c9c     LIBCMT:gshandler.obj
 0004:00000ca8       $pdata$_FF_MSGBANNER       0000000180038ca8     LIBCMT:crt0msg.obj
 0004:00000cb4       $pdata$_NMSG_WRITE         0000000180038cb4     LIBCMT:crt0msg.obj
 0004:00000cc0       $pdata$__doserrno          0000000180038cc0     LIBCMT:dosmap.obj
 0004:00000ccc       $pdata$_dosmaperr          0000000180038ccc     LIBCMT:dosmap.obj
 0004:00000cd8       $pdata$_errno              0000000180038cd8     LIBCMT:dosmap.obj
 0004:00000ce4       $pdata$_heap_init          0000000180038ce4     LIBCMT:heapinit.obj
 0004:00000cf0       $pdata$_fcloseall          0000000180038cf0     LIBCMT:closeall.obj
 0004:00000cfc       $pdata$_lock               0000000180038cfc     LIBCMT:mlock.obj
 0004:00000d08       $pdata$_mtdeletelocks      0000000180038d08     LIBCMT:mlock.obj
 0004:00000d14       $pdata$_mtinitlocknum      0000000180038d14     LIBCMT:mlock.obj
 0004:00000d20       $pdata$_mtinitlocks        0000000180038d20     LIBCMT:mlock.obj
 0004:00000d2c       $pdata$_fileno             0000000180038d2c     LIBCMT:fileno.obj
 0004:00000d38       $pdata$_ftbuf              0000000180038d38     LIBCMT:_sftbuf.obj
 0004:00000d44       $pdata$_stbuf              0000000180038d44     LIBCMT:_sftbuf.obj
 0004:00000d50       $pdata$_output_l           0000000180038d50     LIBCMT:output.obj
 0004:00000d5c       $pdata$write_char          0000000180038d5c     LIBCMT:output.obj
 0004:00000d68       $pdata$write_multi_char    0000000180038d68     LIBCMT:output.obj
 0004:00000d74       $pdata$write_string        0000000180038d74     LIBCMT:output.obj
 0004:00000d80       $pdata$_ioinit             0000000180038d80     LIBCMT:ioinit.obj
 0004:00000d8c       $pdata$_ioterm             0000000180038d8c     LIBCMT:ioinit.obj
 0004:00000d98       $pdata$__freetlocinfo      0000000180038d98     LIBCMT:localref.obj
 0004:00000da4       $pdata$__updatetlocinfo    0000000180038da4     LIBCMT:localref.obj
 0004:00000db0       $pdata$_updatetlocinfoEx_nolock 0000000180038db0     LIBCMT:localref.obj
 0004:00000dbc       $pdata$__initmbctable      0000000180038dbc     LIBCMT:mbctype.obj
 0004:00000dc8       $pdata$?getSystemCP@@YAHH@Z 0000000180038dc8     LIBCMT:mbctype.obj
 0004:00000dd4       $pdata$?setSBCS@@YAXPEAUthreadmbcinfostruct@@@Z 0000000180038dd4     LIBCMT:mbctype.obj
 0004:00000de0       $pdata$?setSBUpLow@@YAXPEAUthreadmbcinfostruct@@@Z 0000000180038de0     LIBCMT:mbctype.obj
 0004:00000dec       $pdata$__updatetmbcinfo    0000000180038dec     LIBCMT:mbctype.obj
 0004:00000df8       $pdata$_setmbcp            0000000180038df8     LIBCMT:mbctype.obj
 0004:00000e04       $pdata$_setmbcp_nolock     0000000180038e04     LIBCMT:mbctype.obj
 0004:00000e10       $pdata$_tolower_l          0000000180038e10     LIBCMT:tolower.obj
 0004:00000e1c       $pdata$_freefls            0000000180038e1c     LIBCMT:tidtable.obj
 0004:00000e28       $pdata$_freeptd            0000000180038e28     LIBCMT:tidtable.obj
 0004:00000e34       $pdata$_getptd             0000000180038e34     LIBCMT:tidtable.obj
 0004:00000e40       $pdata$_getptd_noexit      0000000180038e40     LIBCMT:tidtable.obj
 0004:00000e4c       $pdata$_initptd            0000000180038e4c     LIBCMT:tidtable.obj
 0004:00000e58       $pdata$_mtinit             0000000180038e58     LIBCMT:tidtable.obj
 0004:00000e64       $pdata$_mtterm             0000000180038e64     LIBCMT:tidtable.obj
 0004:00000e70       $pdata$_locterm            0000000180038e70     LIBCMT:wsetloca.obj
 0004:00000e7c       $pdata$_XcptFilter         0000000180038e7c     LIBCMT:winxfltr.obj
 0004:00000e88       $pdata$_setargv            0000000180038e88     LIBCMT:stdargv.obj
 0004:00000e94       $pdata$parse_cmdline       0000000180038e94     LIBCMT:stdargv.obj
 0004:00000ea0       $pdata$_setenvp            0000000180038ea0     LIBCMT:stdenvp.obj
 0004:00000eac       $pdata$__security_init_cookie 0000000180038eac     LIBCMT:gs_support.obj
 0004:00000eb8       $pdata$__crtGetEnvironmentStringsA 0000000180038eb8     LIBCMT:a_env.obj
 0004:00000ec4       $pdata$__crtCaptureCurrentContext 0000000180038ec4     LIBCMT:winapisupp.obj
 0004:00000ed0       $pdata$__crtCapturePreviousContext 0000000180038ed0     LIBCMT:winapisupp.obj
 0004:00000edc       $pdata$__crtInitializeCriticalSectionEx 0000000180038edc     LIBCMT:winapisupp.obj
 0004:00000ee8       $pdata$__crtIsPackagedApp  0000000180038ee8     LIBCMT:winapisupp.obj
 0004:00000ef4       $pdata$__crtLoadWinApiPointers 0000000180038ef4     LIBCMT:winapisupp.obj
 0004:00000f00       $pdata$__crtTerminateProcess 0000000180038f00     LIBCMT:winapisupp.obj
 0004:00000f0c       $pdata$__crtUnhandledException 0000000180038f0c     LIBCMT:winapisupp.obj
 0004:00000f18       $pdata$_RTC_Initialize     0000000180038f18     LIBCMT:initsect.obj
 0004:00000f24       $pdata$_RTC_Terminate      0000000180038f24     LIBCMT:initsect.obj
 0004:00000f30       $pdata$__DestructExceptionObject 0000000180038f30     LIBCMT:frame.obj
 0004:00000f3c       $pdata$?terminate@@YAXXZ   0000000180038f3c     LIBCMT:hooks.obj
 0004:00000f48       $pdata$_initp_eh_hooks     0000000180038f48     LIBCMT:hooks.obj
 0004:00000f60       $pdata$?_Type_info_dtor@type_info@@CAXPEAV1@@Z 0000000180038f60     LIBCMT:typname.obj
 0004:00000f6c       $pdata$_cfltcvt            0000000180038f6c     LIBCMT:cvt.obj
 0004:00000f78       $pdata$_cfltcvt_l          0000000180038f78     LIBCMT:cvt.obj
 0004:00000f84       $pdata$_cftoa_l            0000000180038f84     LIBCMT:cvt.obj
 0004:00000f90       $pdata$_cftoe2_l           0000000180038f90     LIBCMT:cvt.obj
 0004:00000f9c       $pdata$_cftoe_l            0000000180038f9c     LIBCMT:cvt.obj
 0004:00000fa8       $pdata$_cftof2_l           0000000180038fa8     LIBCMT:cvt.obj
 0004:00000fb4       $pdata$_cftof_l            0000000180038fb4     LIBCMT:cvt.obj
 0004:00000fc0       $pdata$_cftog_l            0000000180038fc0     LIBCMT:cvt.obj
 0004:00000fcc       $pdata$_cropzeros_l        0000000180038fcc     LIBCMT:cvt.obj
 0004:00000fd8       $pdata$_fassign_l          0000000180038fd8     LIBCMT:cvt.obj
 0004:00000fe4       $pdata$_forcdecpt_l        0000000180038fe4     LIBCMT:cvt.obj
 0004:00000ff0       $pdata$_initp_misc_cfltcvt_tab 0000000180038ff0     LIBCMT:cmiscdat.obj
 0004:00000ffc       $pdata$strcpy_s            0000000180038ffc     LIBCMT:strcpy_s.obj
 0004:00001008       $pdata$_IsNonwritableInCurrentImage 0000000180039008     LIBCMT:pesect.obj
 0004:00001014       $pdata$realloc             0000000180039014     LIBCMT:realloc.obj
 0004:00001020       $pdata$_calloc_impl        0000000180039020     LIBCMT:calloc_impl.obj
 0004:0000105c       $pdata$GetTableIndexFromLocaleName 000000018003905c     LIBCMT:winapinls.obj
 0004:00001068       $pdata$__crtDownlevelLocaleNameToLCID 0000000180039068     LIBCMT:winapinls.obj
 0004:00001074       $pdata$__crtLCMapStringEx  0000000180039074     LIBCMT:winapinls.obj
 0004:00001098       $pdata$_commit             0000000180039098     LIBCMT:commit.obj
 0004:000010a4       $pdata$_write              00000001800390a4     LIBCMT:write.obj
 0004:000010b0       $pdata$_write_nolock       00000001800390b0     LIBCMT:write.obj
 0004:000010bc       $pdata$_freebuf            00000001800390bc     LIBCMT:_freebuf.obj
 0004:000010c8       $pdata$_woutput_l          00000001800390c8     LIBCMT:woutput.obj
 0004:000010d4       $pdata$write_char          00000001800390d4     LIBCMT:woutput.obj
 0004:000010e0       $pdata$write_multi_char    00000001800390e0     LIBCMT:woutput.obj
 0004:000010ec       $pdata$write_string        00000001800390ec     LIBCMT:woutput.obj
 0004:000010f8       $pdata$_flsbuf             00000001800390f8     LIBCMT:_flsbuf.obj
 0004:00001104       $pdata$wcsncpy_s           0000000180039104     LIBCMT:wcsncpy_s.obj
 0004:00001110       $pdata$_fclose_nolock      0000000180039110     LIBCMT:fclose.obj
 0004:0000111c       $pdata$fclose              000000018003911c     LIBCMT:fclose.obj
 0004:00001128       $pdata$_isatty             0000000180039128     LIBCMT:isatty.obj
 0004:00001134       $pdata$_isleadbyte_l       0000000180039134     LIBCMT:_wctype.obj
 0004:00001140       $pdata$isleadbyte          0000000180039140     LIBCMT:_wctype.obj
 0004:0000114c       $pdata$_wctomb_s_l         000000018003914c     LIBCMT:wctomb.obj
 0004:00001158       $pdata$wctomb_s            0000000180039158     LIBCMT:wctomb.obj
 0004:00001164       $pdata$__free_lconv_mon    0000000180039164     LIBCMT:initmon.obj
 0004:00001170       $pdata$__free_lconv_num    0000000180039170     LIBCMT:initnum.obj
 0004:0000117c       $pdata$__free_lc_time      000000018003917c     LIBCMT:inittime.obj
 0004:00001188       $pdata$?__crtLCMapStringA_stat@@YAHPEAUlocaleinfo_struct@@PEB_WKPEBDHPEADHHH@Z 0000000180039188     LIBCMT:a_map.obj
 0004:00001194       $pdata$__crtLCMapStringA   0000000180039194     LIBCMT:a_map.obj
 0004:000011a0       $pdata$?__crtGetStringTypeA_stat@@YAHPEAUlocaleinfo_struct@@KPEBDHPEAGHH@Z 00000001800391a0     LIBCMT:a_str.obj
 0004:000011ac       $pdata$__crtGetStringTypeA 00000001800391ac     LIBCMT:a_str.obj
 0004:000011b8       $pdata$_isctype_l          00000001800391b8     LIBCMT:isctype.obj
 0004:000011d0       $pdata$?x_ismbbtype_l@@YAHPEAUlocaleinfo_struct@@IHH@Z 00000001800391d0     LIBCMT:ismbbyte.obj
 0004:000011e8       $pdata$isdigit             00000001800391e8     LIBCMT:_ctype.obj
 0004:000011f4       $pdata$strrchr             00000001800391f4     LIBCMT:strrchr.obj
 0004:00001200       $pdata$_fptostr            0000000180039200     LIBCMT:_fptostr.obj
 0004:0000120c       $pdata$__crt_atoflt_l      000000018003920c     LIBCMT:atodbl.obj
 0004:00001218       $pdata$_atodbl_l           0000000180039218     LIBCMT:atodbl.obj
 0004:00001224       $pdata$__dtold             0000000180039224     LIBCMT:cfout.obj
 0004:00001230       $pdata$_fltout2            0000000180039230     LIBCMT:cfout.obj
 0004:00001248       $pdata$__lock_fhandle      0000000180039248     LIBCMT:osfinfo.obj
 0004:00001254       $pdata$_free_osfhnd        0000000180039254     LIBCMT:osfinfo.obj
 0004:00001260       $pdata$_get_osfhandle      0000000180039260     LIBCMT:osfinfo.obj
 0004:0000126c       $pdata$_lseeki64           000000018003926c     LIBCMT:lseeki64.obj
 0004:00001278       $pdata$_lseeki64_nolock    0000000180039278     LIBCMT:lseeki64.obj
 0004:00001284       $pdata$_mbtowc_l           0000000180039284     LIBCMT:mbtowc.obj
 0004:00001290       $pdata$_putwch_nolock      0000000180039290     LIBCMT:putwch.obj
 0004:0000129c       $pdata$_fputwc_nolock      000000018003929c     LIBCMT:fputwc.obj
 0004:000012a8       $pdata$_getbuf             00000001800392a8     LIBCMT:_getbuf.obj
 0004:000012b4       $pdata$_close              00000001800392b4     LIBCMT:close.obj
 0004:000012c0       $pdata$_close_nolock       00000001800392c0     LIBCMT:close.obj
 0004:000012cc       $pdata$_ld12tod            00000001800392cc     LIBCMT:intrncvt.obj
 0004:000012d8       $pdata$_ld12tof            00000001800392d8     LIBCMT:intrncvt.obj
 0004:000012e4       $pdata$__strgtold12_l      00000001800392e4     LIBCMT:strgtold.obj
 0004:000012f0       $pdata$$I10_OUTPUT         00000001800392f0     LIBCMT:x10fout.obj
 0004:000012fc       $pdata$__termconout        00000001800392fc     LIBCMT:initcon.obj
 0004:00001308       $pdata$__initconout        0000000180039308     LIBCMT:initcon.obj
 0004:00001314       $pdata$_flswbuf            0000000180039314     LIBCMT:_flswbuf.obj
 0004:00001320       $pdata$__mtold12           0000000180039320     LIBCMT:mantold.obj
 0004:0000132c       $pdata$__delayLoadHelper2  000000018003932c     DelayImp:delayhlp.obj
 0004:00001338       $pdata$_onexit$fin$0       0000000180039338     LIBCMT:onexit.obj
 0004:00001344       $pdata$fprintf$fin$0       0000000180039344     LIBCMT:fprintf.obj
 0004:00001350       $pdata$_CRT_INIT$fin$0     0000000180039350     LIBCMT:dllcrt0.obj
 0004:0000135c       $pdata$__DllMainCRTStartup$filt$0 000000018003935c     LIBCMT:dllcrt0.obj
 0004:00001368       $pdata$doexit$fin$0        0000000180039368     LIBCMT:crt0dat.obj
 0004:00001374       $pdata$flsall$fin$0        0000000180039374     LIBCMT:fflush.obj
 0004:00001380       $pdata$flsall$fin$1        0000000180039380     LIBCMT:fflush.obj
 0004:0000138c       $pdata$setvbuf$fin$0       000000018003938c     LIBCMT:setvbuf.obj
 0004:00001398       $pdata$fwprintf$fin$0      0000000180039398     LIBCMT:fwprintf.obj
 0004:000013a4       $pdata$raise$fin$0         00000001800393a4     LIBCMT:winsig.obj
 0004:000013b0       $pdata$_fcloseall$fin$0    00000001800393b0     LIBCMT:closeall.obj
 0004:000013bc       $pdata$_mtinitlocknum$fin$0 00000001800393bc     LIBCMT:mlock.obj
 0004:000013c8       $pdata$_ioinit$fin$0       00000001800393c8     LIBCMT:ioinit.obj
 0004:000013d4       $pdata$__updatetmbcinfo$fin$0 00000001800393d4     LIBCMT:mbctype.obj
 0004:000013d4       $pdata$_setmbcp$fin$0      00000001800393d4     LIBCMT:mbctype.obj
 0004:000013e0       $pdata$_initptd$fin$1      00000001800393e0     LIBCMT:tidtable.obj
 0004:000013e0       $pdata$_freefls$fin$1      00000001800393e0     LIBCMT:tidtable.obj
 0004:000013ec       $pdata$_freefls$fin$0      00000001800393ec     LIBCMT:tidtable.obj
 0004:000013ec       $pdata$_initptd$fin$0      00000001800393ec     LIBCMT:tidtable.obj
 0004:000013f8       $pdata$__updatetlocinfo$fin$0 00000001800393f8     LIBCMT:wsetloca.obj
 0004:000013f8       $pdata$_locterm$fin$0      00000001800393f8     LIBCMT:wsetloca.obj
 0004:00001404       $pdata$__DestructExceptionObject$filt$0 0000000180039404     LIBCMT:frame.obj
 0004:00001410       $pdata$?fin$0@?0??_Type_info_dtor@type_info@@CAXPEAV1@@Z@4HA 0000000180039410     LIBCMT:typname.obj
 0004:0000141c       $pdata$_IsNonwritableInCurrentImage$filt$0 000000018003941c     LIBCMT:pesect.obj
 0004:00001428       $pdata$_write$fin$0        0000000180039428     LIBCMT:write.obj
 0004:00001428       $pdata$_lseeki64$fin$0     0000000180039428     LIBCMT:write.obj
 0004:00001434       $pdata$fclose$fin$0        0000000180039434     LIBCMT:fclose.obj
 0004:00001434       $pdata$fflush$fin$0        0000000180039434     LIBCMT:fclose.obj
 0004:00001440       $pdata$__lock_fhandle$fin$0 0000000180039440     LIBCMT:osfinfo.obj
 0004:0000144c       $pdata$_close$fin$0        000000018003944c     LIBCMT:close.obj
 0004:0000144c       $pdata$_commit$fin$0       000000018003944c     LIBCMT:close.obj
 0005:00000060       $R000000                   000000018003a060     * linker generated manifest res *

 Exports

  ordinal    name

        1    _register_secp256k1_
